
lab08_ucosii.elf:     file format elf32-littlenios2
lab08_ucosii.elf
architecture: nios2, flags 0x00000112:
EXEC_P, HAS_SYMS, D_PAGED
start address 0x008001bc

Program Header:
    LOAD off    0x00001000 vaddr 0x00800000 paddr 0x00800000 align 2**12
         filesz 0x00000020 memsz 0x00000020 flags r-x
    LOAD off    0x00001020 vaddr 0x00800020 paddr 0x00800020 align 2**12
         filesz 0x0001d228 memsz 0x0001d228 flags r-x
    LOAD off    0x0001e248 vaddr 0x0081d248 paddr 0x0081ef40 align 2**12
         filesz 0x00001cf8 memsz 0x00001cf8 flags rw-
    LOAD off    0x00020c38 vaddr 0x00820c38 paddr 0x00820c38 align 2**12
         filesz 0x00000000 memsz 0x0000d680 flags rw-

Sections:
Idx Name          Size      VMA       LMA       File off  Algn
  0 .entry        00000020  00800000  00800000  00001000  2**5
                  CONTENTS, ALLOC, LOAD, READONLY, CODE
  1 .exceptions   0000019c  00800020  00800020  00001020  2**2
                  CONTENTS, ALLOC, LOAD, READONLY, CODE
  2 .text         0001c398  008001bc  008001bc  000011bc  2**2
                  CONTENTS, ALLOC, LOAD, READONLY, CODE
  3 .rodata       00000cf4  0081c554  0081c554  0001d554  2**2
                  CONTENTS, ALLOC, LOAD, READONLY, DATA
  4 .rwdata       00001cf8  0081d248  0081ef40  0001e248  2**2
                  CONTENTS, ALLOC, LOAD, DATA, SMALL_DATA
  5 .bss          0000d680  00820c38  00820c38  00020c38  2**2
                  ALLOC, SMALL_DATA
  6 .comment      00000023  00000000  00000000  0001ff40  2**0
                  CONTENTS, READONLY
  7 .debug_aranges 000011f8  00000000  00000000  0001ff68  2**3
                  CONTENTS, READONLY, DEBUGGING
  8 .debug_pubnames 00002796  00000000  00000000  00021160  2**0
                  CONTENTS, READONLY, DEBUGGING
  9 .debug_info   0003e24a  00000000  00000000  000238f6  2**0
                  CONTENTS, READONLY, DEBUGGING
 10 .debug_abbrev 0000bfc4  00000000  00000000  00061b40  2**0
                  CONTENTS, READONLY, DEBUGGING
 11 .debug_line   00022ba3  00000000  00000000  0006db04  2**0
                  CONTENTS, READONLY, DEBUGGING
 12 .debug_frame  00002e14  00000000  00000000  000906a8  2**2
                  CONTENTS, READONLY, DEBUGGING
 13 .debug_str    00002e68  00000000  00000000  000934bc  2**0
                  CONTENTS, READONLY, DEBUGGING
 14 .debug_loc    00010021  00000000  00000000  00096324  2**0
                  CONTENTS, READONLY, DEBUGGING
 15 .debug_alt_sim_info 00000050  00000000  00000000  000a6348  2**2
                  CONTENTS, READONLY, DEBUGGING
 16 .debug_ranges 00000c30  00000000  00000000  000a6398  2**3
                  CONTENTS, READONLY, DEBUGGING
 17 .thread_model 00000006  00000000  00000000  000ac52f  2**0
                  CONTENTS, READONLY
 18 .cpu          00000008  00000000  00000000  000ac535  2**0
                  CONTENTS, READONLY
 19 .qsys         00000001  00000000  00000000  000ac53d  2**0
                  CONTENTS, READONLY
 20 .simulation_enabled 00000001  00000000  00000000  000ac53e  2**0
                  CONTENTS, READONLY
 21 .stderr_dev   0000000b  00000000  00000000  000ac53f  2**0
                  CONTENTS, READONLY
 22 .stdin_dev    0000000a  00000000  00000000  000ac54a  2**0
                  CONTENTS, READONLY
 23 .stdout_dev   0000000b  00000000  00000000  000ac554  2**0
                  CONTENTS, READONLY
 24 .sopc_system_name 00000009  00000000  00000000  000ac55f  2**0
                  CONTENTS, READONLY
 25 .quartus_project_dir 00000027  00000000  00000000  000ac568  2**0
                  CONTENTS, READONLY
SYMBOL TABLE:
00800000 l    d  .entry	00000000 .entry
00800020 l    d  .exceptions	00000000 .exceptions
008001bc l    d  .text	00000000 .text
0081c554 l    d  .rodata	00000000 .rodata
0081d248 l    d  .rwdata	00000000 .rwdata
00820c38 l    d  .bss	00000000 .bss
00000000 l    d  .comment	00000000 .comment
00000000 l    d  .debug_aranges	00000000 .debug_aranges
00000000 l    d  .debug_pubnames	00000000 .debug_pubnames
00000000 l    d  .debug_info	00000000 .debug_info
00000000 l    d  .debug_abbrev	00000000 .debug_abbrev
00000000 l    d  .debug_line	00000000 .debug_line
00000000 l    d  .debug_frame	00000000 .debug_frame
00000000 l    d  .debug_str	00000000 .debug_str
00000000 l    d  .debug_loc	00000000 .debug_loc
00000000 l    d  .debug_alt_sim_info	00000000 .debug_alt_sim_info
00000000 l    d  .debug_ranges	00000000 .debug_ranges
008001f4 l       .text	00000000 alt_after_alt_main
00000000 l    df *ABS*	00000000 alt_irq_handler.c
00000000 l    df *ABS*	00000000 gps_ucosii.c
0080210c l     F .text	00000068 WriteLCD
00000000 l    df *ABS*	00000000 w_pow.c
00000000 l    df *ABS*	00000000 e_pow.c
0081caf0 l     O .rodata	00000010 bp
0081cb00 l     O .rodata	00000010 dp_l
0081cb10 l     O .rodata	00000010 dp_h
00000000 l    df *ABS*	00000000 e_sqrt.c
00000000 l    df *ABS*	00000000 s_fabs.c
00000000 l    df *ABS*	00000000 s_finite.c
00000000 l    df *ABS*	00000000 s_isnand.c
00000000 l    df *ABS*	00000000 s_lib_ver.c
00000000 l    df *ABS*	00000000 s_matherr.c
00000000 l    df *ABS*	00000000 s_nan.c
00000000 l    df *ABS*	00000000 s_rint.c
0081cb20 l     O .rodata	00000010 TWO52
00000000 l    df *ABS*	00000000 s_scalbn.c
00000000 l    df *ABS*	00000000 s_copysign.c
00000000 l    df *ABS*	00000000 dp-bit.c
0080476c l     F .text	00000410 _fpadd_parts
00000000 l    df *ABS*	00000000 dp-bit.c
00000000 l    df *ABS*	00000000 dp-bit.c
00000000 l    df *ABS*	00000000 dp-bit.c
00000000 l    df *ABS*	00000000 dp-bit.c
00000000 l    df *ABS*	00000000 dp-bit.c
00000000 l    df *ABS*	00000000 dp-bit.c
00000000 l    df *ABS*	00000000 dp-bit.c
00000000 l    df *ABS*	00000000 dp-bit.c
00000000 l    df *ABS*	00000000 dp-bit.c
00000000 l    df *ABS*	00000000 dp-bit.c
00000000 l    df *ABS*	00000000 libgcc2.c
00000000 l    df *ABS*	00000000 libgcc2.c
00000000 l    df *ABS*	00000000 dp-bit.c
00000000 l    df *ABS*	00000000 dp-bit.c
00000000 l    df *ABS*	00000000 dp-bit.c
00000000 l    df *ABS*	00000000 libgcc2.c
00000000 l    df *ABS*	00000000 errno.c
00000000 l    df *ABS*	00000000 exit.c
00000000 l    df *ABS*	00000000 fclose.c
00000000 l    df *ABS*	00000000 fflush.c
00000000 l    df *ABS*	00000000 findfp.c
008060cc l     F .text	00000058 std
008061d8 l     F .text	00000008 __fp_lock
008061e0 l     F .text	00000008 __fp_unlock
00000000 l    df *ABS*	00000000 fopen.c
00000000 l    df *ABS*	00000000 fprintf.c
00000000 l    df *ABS*	00000000 mallocr.c
00000000 l    df *ABS*	00000000 fseek.c
00000000 l    df *ABS*	00000000 fstatr.c
00000000 l    df *ABS*	00000000 fwalk.c
00000000 l    df *ABS*	00000000 fwrite.c
00000000 l    df *ABS*	00000000 getc.c
00000000 l    df *ABS*	00000000 impure.c
0081d25c l     O .rwdata	00000400 impure_data
00000000 l    df *ABS*	00000000 int_errno.c
00000000 l    df *ABS*	00000000 makebuf.c
00000000 l    df *ABS*	00000000 mallocr.c
00000000 l    df *ABS*	00000000 memset.c
00000000 l    df *ABS*	00000000 openr.c
00000000 l    df *ABS*	00000000 printf.c
00000000 l    df *ABS*	00000000 putchar.c
00000000 l    df *ABS*	00000000 puts.c
00000000 l    df *ABS*	00000000 refill.c
00807e8c l     F .text	0000001c lflush
00000000 l    df *ABS*	00000000 rget.c
00000000 l    df *ABS*	00000000 sbrkr.c
00000000 l    df *ABS*	00000000 sprintf.c
00000000 l    df *ABS*	00000000 stdio.c
00000000 l    df *ABS*	00000000 strlen.c
00000000 l    df *ABS*	00000000 vfprintf.c
0080820c l     F .text	00000058 __sprint_r
0081ccba l     O .rodata	00000010 blanks.3452
0081ccaa l     O .rodata	00000010 zeroes.3453
00000000 l    df *ABS*	00000000 writer.c
00000000 l    df *ABS*	00000000 wsetup.c
00000000 l    df *ABS*	00000000 __call_atexit.c
0080a2e8 l     F .text	00000004 register_fini
00000000 l    df *ABS*	00000000 closer.c
00000000 l    df *ABS*	00000000 dtoa.c
0080a50c l     F .text	00000218 quorem
00000000 l    df *ABS*	00000000 flags.c
00000000 l    df *ABS*	00000000 fvwrite.c
00000000 l    df *ABS*	00000000 isattyr.c
00000000 l    df *ABS*	00000000 locale.c
0081ee90 l     O .rwdata	00000004 charset
0081ccec l     O .rodata	00000030 lconv
00000000 l    df *ABS*	00000000 lseekr.c
00000000 l    df *ABS*	00000000 memchr.c
00000000 l    df *ABS*	00000000 memcpy.c
00000000 l    df *ABS*	00000000 memmove.c
00000000 l    df *ABS*	00000000 mprec.c
0081ce34 l     O .rodata	0000000c p05.2458
00000000 l    df *ABS*	00000000 putc.c
00000000 l    df *ABS*	00000000 readr.c
00000000 l    df *ABS*	00000000 mallocr.c
00000000 l    df *ABS*	00000000 s_isinfd.c
00000000 l    df *ABS*	00000000 strcmp.c
00000000 l    df *ABS*	00000000 wbuf.c
00000000 l    df *ABS*	00000000 mallocr.c
00000000 l    df *ABS*	00000000 libgcc2.c
00000000 l    df *ABS*	00000000 libgcc2.c
00000000 l    df *ABS*	00000000 dp-bit.c
00000000 l    df *ABS*	00000000 dp-bit.c
00000000 l    df *ABS*	00000000 lib2-divmod.c
0080ef14 l     F .text	0000007c udivmodsi4
00000000 l    df *ABS*	00000000 alt_close.c
0080f15c l     F .text	00000060 alt_get_errno
00000000 l    df *ABS*	00000000 alt_dev.c
0080f1bc l     F .text	0000002c alt_dev_null_write
00000000 l    df *ABS*	00000000 alt_errno.c
00000000 l    df *ABS*	00000000 alt_exit.c
0080f1e8 l     F .text	00000040 alt_sim_halt
00000000 l    df *ABS*	00000000 alt_fstat.c
0080f328 l     F .text	00000060 alt_get_errno
00000000 l    df *ABS*	00000000 alt_isatty.c
0080f448 l     F .text	00000060 alt_get_errno
00000000 l    df *ABS*	00000000 alt_load.c
0080f528 l     F .text	0000006c alt_load_section
00000000 l    df *ABS*	00000000 alt_lseek.c
0080f684 l     F .text	00000060 alt_get_errno
00000000 l    df *ABS*	00000000 alt_main.c
00000000 l    df *ABS*	00000000 alt_open.c
0080f7ac l     F .text	000000dc alt_file_locked
0080fa10 l     F .text	00000060 alt_get_errno
00000000 l    df *ABS*	00000000 alt_read.c
0080fb90 l     F .text	00000060 alt_get_errno
00000000 l    df *ABS*	00000000 alt_release_fd.c
00000000 l    df *ABS*	00000000 alt_sbrk.c
0081eeac l     O .rwdata	00000004 heap_end
00000000 l    df *ABS*	00000000 alt_write.c
0080fe2c l     F .text	00000060 alt_get_errno
00000000 l    df *ABS*	00000000 alt_env_lock.c
0081eeb0 l     O .rwdata	00000004 lockid
00820c98 l     O .bss	00000004 locks
00000000 l    df *ABS*	00000000 alt_malloc_lock.c
0081eeb4 l     O .rwdata	00000004 lockid
00820ca0 l     O .bss	00000004 locks
00000000 l    df *ABS*	00000000 os_core.c
00811864 l     F .text	00000044 OS_InitMisc
008118a8 l     F .text	0000006c OS_InitRdyList
00811a0c l     F .text	000000e0 OS_InitTCBList
00811788 l     F .text	000000dc OS_InitEventList
00811914 l     F .text	0000007c OS_InitTaskIdle
00811990 l     F .text	0000007c OS_InitTaskStat
00811c80 l     F .text	00000070 OS_SchedNew
00000000 l    df *ABS*	00000000 os_dbg.c
00000000 l    df *ABS*	00000000 os_flag.c
00813ba0 l     F .text	00000110 OS_FlagTaskRdy
008138f8 l     F .text	000001c4 OS_FlagBlock
00000000 l    df *ABS*	00000000 os_mem.c
00000000 l    df *ABS*	00000000 os_q.c
00000000 l    df *ABS*	00000000 os_sem.c
00000000 l    df *ABS*	00000000 os_task.c
00000000 l    df *ABS*	00000000 os_time.c
00000000 l    df *ABS*	00000000 alt_sys_init.c
0081dc18 l     O .rwdata	0000106c jtag_uart_0
0081ec84 l     O .rwdata	00000124 lcd_0
0081eda8 l     O .rwdata	000000d0 uart_RS232
00818504 l     F .text	00000038 alt_dev_reg
00000000 l    df *ABS*	00000000 altera_avalon_jtag_uart_fd.c
00000000 l    df *ABS*	00000000 altera_avalon_jtag_uart_init.c
008187bc l     F .text	000002c4 altera_avalon_jtag_uart_irq
00818a80 l     F .text	00000114 altera_avalon_jtag_uart_timeout
00000000 l    df *ABS*	00000000 altera_avalon_jtag_uart_ioctl.c
00000000 l    df *ABS*	00000000 altera_avalon_jtag_uart_read.c
00000000 l    df *ABS*	00000000 altera_avalon_jtag_uart_write.c
00000000 l    df *ABS*	00000000 altera_avalon_lcd_16207.c
0081ef2c l     O .rwdata	00000004 colstart
00819298 l     F .text	000000b8 lcd_write_command
00819350 l     F .text	000000d4 lcd_write_data
00819424 l     F .text	000000c4 lcd_clear_screen
008194e8 l     F .text	000001ec lcd_repaint_screen
008196d4 l     F .text	000000c8 lcd_scroll_up
0081979c l     F .text	000002d0 lcd_handle_escape
00819fa4 l     F .text	000000cc alt_lcd_16207_timeout
00000000 l    df *ABS*	00000000 altera_avalon_lcd_16207_fd.c
00000000 l    df *ABS*	00000000 altera_avalon_timer_sc.c
0081a22c l     F .text	00000070 alt_avalon_timer_sc_irq
00000000 l    df *ABS*	00000000 altera_avalon_uart_fd.c
00000000 l    df *ABS*	00000000 altera_avalon_uart_init.c
0081a5a8 l     F .text	0000009c altera_avalon_uart_irq
0081a644 l     F .text	0000013c altera_avalon_uart_rxirq
0081a780 l     F .text	000001c0 altera_avalon_uart_txirq
00000000 l    df *ABS*	00000000 altera_avalon_uart_read.c
0081ac50 l     F .text	00000060 alt_get_errno
00000000 l    df *ABS*	00000000 altera_avalon_uart_write.c
0081aef8 l     F .text	00000060 alt_get_errno
00000000 l    df *ABS*	00000000 alt_alarm_start.c
00000000 l    df *ABS*	00000000 alt_dcache_flush_all.c
00000000 l    df *ABS*	00000000 alt_dev_llist_insert.c
0081b17c l     F .text	00000060 alt_get_errno
00000000 l    df *ABS*	00000000 alt_do_ctors.c
00000000 l    df *ABS*	00000000 alt_do_dtors.c
00000000 l    df *ABS*	00000000 alt_find_dev.c
00000000 l    df *ABS*	00000000 alt_find_file.c
00000000 l    df *ABS*	00000000 alt_get_fd.c
00000000 l    df *ABS*	00000000 alt_icache_flush_all.c
00000000 l    df *ABS*	00000000 alt_iic.c
00000000 l    df *ABS*	00000000 alt_iic_isr_register.c
00000000 l    df *ABS*	00000000 alt_io_redirect.c
0081b848 l     F .text	000000c4 alt_open_fd
00000000 l    df *ABS*	00000000 alt_irq_vars.c
00000000 l    df *ABS*	00000000 alt_tick.c
00000000 l    df *ABS*	00000000 alt_usleep.c
00000000 l    df *ABS*	00000000 altera_nios2_qsys_irq.c
00000040 l       *ABS*	00000000 OSCtxSw_SWITCH_PC
00000000 l    df *ABS*	00000000 os_cpu_c.c
00000014 l       *ABS*	00000000 OSTCBNext_OFFSET
00000032 l       *ABS*	00000000 OSTCBPrio_OFFSET
00000000 l       *ABS*	00000000 OSTCBStkPtr_OFFSET
00000000 l    df *ABS*	00000000 alt_busy_sleep.c
00000000 l    df *ABS*	00000000 alt_icache_flush.c
00000000 l    df *ABS*	00000000 atexit.c
00000000 l    df *ABS*	00000000 ctype_.c
0081d0c5 l     O .rodata	00000180 _ctype_b
00000000 l    df *ABS*	00000000 memcmp.c
00000000 l    df *ABS*	00000000 __atexit.c
00807bf0 g     F .text	0000001c putchar
0080ca30 g     F .text	00000094 _mprec_log10
0081ef02 g     O .rwdata	00000002 OSTaskNameSize
0080cb1c g     F .text	00000088 __any_on
0080c214 g     F .text	00000070 _isatty_r
0081ce0c g     O .rodata	00000028 __mprec_tinytens
0080f6e4 g     F .text	000000c8 alt_main
00807c14 g     F .text	000000a0 _puts_r
0082e028 g     O .bss	00000100 alt_irq
008042dc g     F .text	00000018 fabs
0080c348 g     F .text	00000078 _lseek_r
00814494 g     F .text	000000d0 OS_MemInit
0081ef40 g       *ABS*	00000000 __flash_rwdata_start
008183d8 g     F .text	00000064 OSTimeSet
0080bcd8 g     F .text	000000a0 __sflags
0080528c g     F .text	00000088 __eqdf2
008103e0 g     F .text	000006b4 OSEventPendMulti
0081d248 g     O .rwdata	00000011 print
0082e2b8 g       *ABS*	00000000 __alt_heap_start
0081c044 g     F .text	00000020 OSTaskCreateHook
00820d50 g     O .bss	00002000 task1_stk
00801418 g     F .text	00000038 check_upd
00807b78 g     F .text	00000044 printf
0081eeda g     O .rwdata	00000002 OSMboxEn
00822d50 g     O .bss	0000004b packet_GGA
00810ae8 g     F .text	0000007c OSIntEnter
00808054 g     F .text	00000068 __sseek
00806134 g     F .text	000000a4 __sinit
0080df6c g     F .text	00000130 __swbuf_r
0081eeea g     O .rwdata	00000002 OSQEn
00820c38 g     O .bss	00000004 pwm1
0080c2a8 g     F .text	00000084 _setlocale_r
00806234 g     F .text	00000068 __sfmoreglue
0081009c g     F .text	000000d0 __malloc_unlock
0081c0a0 g     F .text	0000001c OSTaskStatHook
00820ca8 g     O .bss	00000001 OSLockNesting
0081ef28 g     O .rwdata	00000002 OSDataSize
00820ca9 g     O .bss	00000001 OSRunning
00820c3c g     O .bss	00000004 j
00820c40 g     O .bss	00000004 pwm2
0080c544 g     F .text	000000e0 memmove
0081c0d8 g     F .text	0000001c OSInitHookBegin
00802564 g     F .text	00000060 task5
0081ef20 g     O .rwdata	00000002 OSTmrSize
00806224 g     F .text	00000010 _cleanup
0080cba4 g     F .text	000000bc _Balloc
00820cac g     O .bss	00000004 OSIdleCtr
0080539c g     F .text	00000088 __gtdf2
0081bd10 g       .text	00000000 OSStartTsk
00805d30 g     F .text	00000010 __errno
00811fb4 g     F .text	000002e0 OS_TCBInit
00800000 g     F .entry	0000001c __reset
00820c44 g     O .bss	00000001 cs
0081ef26 g     O .rwdata	00000002 OSTmrWheelTblSize
00800020 g       *ABS*	00000000 __flash_exceptions_start
0081eec6 g     O .rwdata	00000002 OSEventSize
00820cb0 g     O .bss	00000001 OSPrioHighRdy
00806d9c g     F .text	00000074 _fstat_r
0081c064 g     F .text	00000020 OSTaskDelHook
00820c6c g     O .bss	00000004 errno
00807ef4 g     F .text	00000014 __srget
0081bcf0 g       .text	00000000 OSStartHighRdy
00816ba8 g     F .text	00000200 OSTaskCreateExt
00800000 g       *ABS*	00000000 __alt_mem_sdram_controller
00822d9b g     O .bss	00000053 pkt
00813414 g     F .text	00000068 OSFlagPendGetFlagsRdy
0081ef06 g     O .rwdata	00000002 OSTaskStatStkSize
00812420 g     F .text	00000334 OSFlagAccept
00814bcc g     F .text	000000c8 OSQFlush
00814564 g     F .text	00000154 OSQAccept
00820c90 g     O .bss	00000004 alt_argv
00826e78 g       *ABS*	00000000 _gp
0081bb2c g     F .text	00000118 usleep
008169d4 g     F .text	000001d4 OSTaskCreate
00816460 g     F .text	00000574 OSTaskChangePrio
00820ca4 g     O .bss	00000004 alt_heapsem
008024d8 g     F .text	0000008c task4
00812294 g     F .text	0000018c OSDebugInit
00816da8 g     F .text	0000040c OSTaskDel
0081da98 g     O .rwdata	00000180 alt_fd_list
0082ae04 g     O .bss	00000370 OSFlagTbl
00807104 g     F .text	00000090 _getc_r
0080706c g     F .text	00000098 getc
00807c0c g     F .text	00000008 _putchar_r
00811564 g     F .text	000000b8 OS_EventTaskRemove
0081b2a4 g     F .text	00000094 alt_find_dev
0080c4a4 g     F .text	000000a0 memcpy
0081eef0 g     O .rwdata	00000002 OSRdyTblSize
00806218 g     F .text	0000000c _cleanup_r
00805534 g     F .text	000000f8 __floatsidf
0081b90c g     F .text	00000078 alt_io_redirect
00805424 g     F .text	00000088 __ltdf2
0081c554 g       *ABS*	00000000 __DTOR_END__
00807cb4 g     F .text	00000014 puts
0081016c g     F .text	00000130 OSEventNameGet
0081eed4 g     O .rwdata	00000002 OSFlagMax
0080c980 g     F .text	000000b0 __ratio
00810b64 g     F .text	00000100 OSIntExit
0081ef0e g     O .rwdata	00000002 OSTCBSize
00820cb1 g     O .bss	00000001 OSPrioCur
00818cfc g     F .text	000002c0 altera_avalon_jtag_uart_read
00000000  w      *UND*	00000000 malloc
00807bbc g     F .text	00000034 _printf_r
0080f050 g     F .text	00000008 __udivsi3
0080f388 g     F .text	000000c0 isatty
0081eef4 g     O .rwdata	00000002 OSStkWidth
0081cd1c g     O .rodata	000000c8 __mprec_tens
0081eee8 g     O .rwdata	00000002 OSPtrSize
0080c284 g     F .text	00000008 __locale_charset
0081eec8 g     O .rwdata	00000002 OSEventTblSize
0081bc64 g       .text	00000000 OSCtxSw
0081c298 g     F .text	00000090 alt_icache_flush
00820c70 g     O .bss	00000004 __malloc_top_pad
00820cb4 g     O .bss	00000004 OSTCBList
00820c88 g     O .bss	00000004 alt_fd_list_lock
0081ee8c g     O .rwdata	00000004 __mb_cur_max
0080c28c g     F .text	0000000c _localeconv_r
0080d29c g     F .text	0000003c __i2b
0080bd78 g     F .text	0000049c __sfvwrite_r
0082b174 g     O .bss	00000c30 OSMemTbl
00820cb8 g     O .bss	00000001 OSTickStepState
00807f08 g     F .text	00000070 _sbrk_r
0081eeec g     O .rwdata	00000002 OSQMax
0082bda4 g     O .bss	00000800 OSTaskStatStk
0081407c g     F .text	0000010c OSMemNameGet
00822df0 g     O .bss	00002000 task4_stk
0081eecc g     O .rwdata	00000002 OSFlagEn
0080d804 g     F .text	00000078 _read_r
0081ef12 g     O .rwdata	00000002 OSTimeTickHookEn
00815130 g     F .text	00000180 OSQPost
00813cb0 g     F .text	000000ac OS_FlagUnlink
0081da64 g     O .rwdata	0000000c __lc_ctype
0081eea4 g     O .rwdata	00000004 alt_max_fd
00811b40 g     F .text	0000006c OS_MemCopy
00811bac g     F .text	000000d4 OS_Sched
00805b30 g     F .text	00000138 __unpack_d
00805d78 g     F .text	00000110 _fclose_r
00813f78 g     F .text	00000104 OSMemGet
008174dc g     F .text	000001c4 OSTaskNameSet
00806098 g     F .text	00000034 fflush
00820c74 g     O .bss	00000004 __malloc_max_sbrked_mem
00820cbc g     O .bss	00000004 OSCtxSwCtr
0081c0bc g     F .text	0000001c OSTimeTickHook
0081eed6 g     O .rwdata	00000002 OSFlagNameSize
00820c48 g     O .bss	00000004 temp
0081161c g     F .text	00000104 OS_EventTaskRemoveMulti
00804bfc g     F .text	00000074 __adddf3
00811410 g     F .text	00000154 OS_EventTaskWaitMulti
0080c860 g     F .text	00000120 __b2d
0081eeee g     O .rwdata	00000002 OSQSize
0080e748 g     F .text	000005b0 __umoddi3
0080f594 g     F .text	000000f0 lseek
00815d0c g     F .text	0000027c OSSemPend
0081ee78 g     O .rwdata	00000004 __fdlib_version
0081ee80 g     O .rwdata	00000004 _global_impure_ptr
0080d87c g     F .text	000005f4 _realloc_r
0081eed8 g     O .rwdata	00000002 OSLowestPrio
0082e2b8 g       *ABS*	00000000 __bss_end
0081b750 g     F .text	000000f8 alt_iic_isr_register
0081c12c g     F .text	00000020 OSTCBInitHook
0081ef1e g     O .rwdata	00000002 OSTmrCfgTicksPerSec
0081ba1c g     F .text	00000110 alt_tick
0080e16c g     F .text	000005dc __udivdi3
0081eec0 g     O .rwdata	00000002 OSEventEn
0081cde4 g     O .rodata	00000028 __mprec_bigtens
0080d4f8 g     F .text	00000120 __s2b
0081ef1a g     O .rwdata	00000002 OSTmrCfgNameSize
0080ed80 g     F .text	00000194 __floatunsidf
0080c780 g     F .text	00000060 __mcmp
0081a424 g     F .text	00000184 altera_avalon_uart_init
0081ef3c g     O .rwdata	00000004 __ctype_ptr
00806200 g     F .text	00000018 __fp_lock_all
0081b708 g     F .text	00000048 alt_ic_irq_enabled
00813abc g     F .text	000000e4 OS_FlagInit
0081b984 g     F .text	00000098 alt_alarm_stop
0081eefc g     O .rwdata	00000002 OSTaskIdleStkSize
00820cf8 g     O .bss	00000004 alt_irq_active
00815898 g     F .text	000000c0 OSSemAccept
008142a8 g     F .text	000000f0 OSMemPut
00813d5c g     F .text	0000021c OSMemCreate
00820cc0 g     O .bss	00000004 OSIdleCtrMax
008000ec g     F .exceptions	000000d0 alt_irq_handler
0081da70 g     O .rwdata	00000028 alt_dev_null
0081ef10 g     O .rwdata	00000002 OSTicksPerSec
00804358 g     F .text	00000210 rint
0081bc64 g       .text	00000000 OSIntCtxSw
0081b0ac g     F .text	0000001c alt_dcache_flush_all
0080c64c g     F .text	00000070 __hi0bits
0080562c g     F .text	000000d8 __fixdfsi
00820cc4 g     O .bss	00000004 OSTCBFreeList
0081ef40 g       *ABS*	00000000 __ram_rwdata_end
00815f88 g     F .text	0000017c OSSemPendAbort
0081ee9c g     O .rwdata	00000008 alt_dev_list
0080fd0c g     F .text	00000120 write
0080d71c g     F .text	000000e8 _putc_r
0081ef14 g     O .rwdata	00000002 OSVersionNbr
0081d248 g       *ABS*	00000000 __ram_rodata_end
0080f254 g     F .text	000000d4 fstat
0080649c g     F .text	0000002c fprintf
008054ac g     F .text	00000088 __ledf2
0081eebc g     O .rwdata	00000004 OSEndiannessTest
0080d3d8 g     F .text	00000120 __pow5mult
00820c7c g     O .bss	00000004 __nlocale_changed
0080f058 g     F .text	00000008 __umodsi3
0081eece g     O .rwdata	00000002 OSFlagGrpSize
0082e2b8 g       *ABS*	00000000 end
00819a6c g     F .text	00000538 altera_avalon_lcd_16207_write
0081acb0 g     F .text	00000248 altera_avalon_uart_write
00806d78 g     F .text	00000024 fseek
00818684 g     F .text	00000138 altera_avalon_jtag_uart_init
00811e24 g     F .text	000000c8 OS_TaskStat
0081c550 g       *ABS*	00000000 __CTOR_LIST__
01000000 g       *ABS*	00000000 __alt_stack_pointer
0081a29c g     F .text	00000090 alt_avalon_timer_sc_init
0081a384 g     F .text	00000058 altera_avalon_uart_write_fd
0080579c g     F .text	00000080 __clzsi2
0081a3dc g     F .text	00000048 altera_avalon_uart_close_fd
00818fbc g     F .text	000002dc altera_avalon_jtag_uart_write
00806124 g     F .text	00000004 __sfp_lock_acquire
0080c3c0 g     F .text	000000e4 memchr
00811aec g     F .text	00000054 OS_MemClr
00808264 g     F .text	00001eac ___vfprintf_internal_r
0081bd34 g     F .text	00000310 OSTaskStkInit
00802174 g     F .text	000000cc task1
00807fec g     F .text	00000060 _sprintf_r
00806628 g     F .text	00000314 _free_r
0081116c g     F .text	00000194 OS_EventTaskRdy
00807ea8 g     F .text	0000004c __srget_r
0080a2ec g     F .text	000001b0 __call_exitprocs
00820cc8 g     O .bss	00000001 OSCPUUsage
00820c4c g     O .bss	00000001 test
00820c80 g     O .bss	00000004 __mlocale_changed
0081ee88 g     O .rwdata	00000004 __malloc_sbrk_base
008001bc g     F .text	0000003c _start
00802240 g     F .text	0000020c task2
00820cfc g     O .bss	00000004 _alt_tick_rate
00820c50 g     O .bss	00000004 temp_inc1
00814c94 g     F .text	00000320 OSQPend
00801d5c g     F .text	000003b0 long_to_deg
00817ea0 g     F .text	0000014c OSTimeDly
0080cf68 g     F .text	0000014c __lshift
00820d00 g     O .bss	00000004 _alt_nticks
0080fa70 g     F .text	00000120 read
00818470 g     F .text	00000094 alt_sys_init
00807b00 g     F .text	00000078 _open_r
0081c3b0 g     F .text	00000134 __register_exitproc
00820cc9 g     O .bss	00000001 OSTaskCtr
00817fec g     F .text	00000178 OSTimeDlyHMSM
008019ac g     F .text	000003b0 lat_to_deg
0080d0b4 g     F .text	000001e8 __multiply
00802d14 g     F .text	00001300 __ieee754_pow
00818b94 g     F .text	00000074 altera_avalon_jtag_uart_close
0080288c g     F .text	00000488 pow
0081d248 g       *ABS*	00000000 __ram_rwdata_start
0081c554 g       *ABS*	00000000 __ram_rodata_start
00820d28 g     O .bss	00000028 __malloc_current_mallinfo
0081eec2 g     O .rwdata	00000002 OSEventMax
0080cc60 g     F .text	0000017c __d2b
00816104 g     F .text	00000128 OSSemPost
00801450 g     F .text	0000017c atoh
00810cf0 g     F .text	000000e4 OSSchedUnlock
0081853c g     F .text	00000058 altera_avalon_jtag_uart_read_fd
0081b458 g     F .text	000000f4 alt_get_fd
00820ccc g     O .bss	00000004 OSMemFreeList
00810e44 g     F .text	000000ac OSStatInit
0081c14c g     F .text	0000014c alt_busy_sleep
00813824 g     F .text	000000d4 OSFlagQuery
00805c68 g     F .text	000000c8 __fpcmp_parts_d
0081eef8 g     O .rwdata	00000002 OSTaskCreateExtEn
0080a49c g     F .text	00000070 _close_r
0081c33c g     F .text	00000074 memcmp
00811150 g     F .text	0000001c OS_Dummy
008185ec g     F .text	00000048 altera_avalon_jtag_uart_close_fd
0082e2b8 g       *ABS*	00000000 __alt_stack_base
00818634 g     F .text	00000050 altera_avalon_jtag_uart_ioctl_fd
00806f90 g     F .text	0000009c _fwrite_r
0080a1ac g     F .text	0000013c __swsetup_r
0082c5a4 g     O .bss	000001e0 OSQTbl
00805034 g     F .text	00000258 __divdf3
0080629c g     F .text	000000f0 __sfp
0080cac4 g     F .text	00000058 __copybits
0081d65c g     O .rwdata	00000408 __malloc_av_
00806130 g     F .text	00000004 __sinit_lock_release
00820c54 g     O .bss	00000004 data_packet_sem
00820cd0 g     O .bss	00000004 OSTCBHighRdy
00804c70 g     F .text	000003c4 __muldf3
00808138 g     F .text	00000060 __sread
00820cd4 g     O .bss	00000004 OSQFreeList
0081b338 g     F .text	00000120 alt_find_file
0081b0c8 g     F .text	000000b4 alt_dev_llist_insert
0080ff94 g     F .text	00000108 __malloc_lock
008064c8 g     F .text	00000034 _fprintf_r
0080fc50 g     F .text	000000bc sbrk
0081029c g     F .text	00000144 OSEventNameSet
00805e9c g     F .text	000001fc _fflush_r
0080e0b8 g     F .text	000000b4 _calloc_r
00820cd8 g     O .bss	00000001 OSRdyGrp
00806480 g     F .text	0000001c fopen
00820c38 g       *ABS*	00000000 __bss_start
00807a68 g     F .text	00000098 memset
00820d1c g     O .bss	0000000c longitude
008025c4 g     F .text	000002c8 main
00820c94 g     O .bss	00000004 alt_envp
00820c78 g     O .bss	00000004 __malloc_max_total_mem
00818594 g     F .text	00000058 altera_avalon_jtag_uart_write_fd
0080e09c g     F .text	0000001c __swbuf
0081ce70 g     O .rodata	00000100 OSUnMapTbl
0081a070 g     F .text	00000164 altera_avalon_lcd_16207_init
0081eef2 g     O .rwdata	00000002 OSSemEn
0081347c g     F .text	000003a8 OSFlagPost
0080804c g     F .text	00000008 __sclose
00804340 g     F .text	00000008 matherr
0080023c g     F .text	000004ac alt_ucosii_simple_error_handler
01000000 g       *ABS*	00000000 __alt_heap_limit
00805e88 g     F .text	00000014 fclose
00811300 g     F .text	00000110 OS_EventTaskWait
00824df0 g     O .bss	00002000 task2_stk
00811eec g     F .text	000000c8 OS_TaskStatStkChk
0082e128 g     O .bss	00000190 _atexit0
008171b4 g     F .text	00000170 OSTaskDelReq
0080a724 g     F .text	000015b4 _dtoa_r
00807328 g     F .text	00000740 _malloc_r
00820d04 g     O .bss	0000000c time
0081eea8 g     O .rwdata	00000004 alt_errno
00810dd4 g     F .text	00000070 OSStart
00826df0 g     O .bss	00002000 task3_stk
0080ff38 g     F .text	0000005c __env_unlock
00806ed8 g     F .text	000000b8 _fwalk
008176a0 g     F .text	00000218 OSTaskResume
00814398 g     F .text	000000fc OSMemQuery
0081ef04 g     O .rwdata	00000002 OSTaskStatEn
0081eede g     O .rwdata	00000002 OSMemMax
008152b0 g     F .text	00000188 OSQPostFront
0080d618 g     F .text	00000104 putc
0080ef90 g     F .text	00000060 __divsi3
00820cd9 g     O .bss	00000003 OSRdyTbl
0081eeb8 g     O .rwdata	00000002 OSDebugEn
0081cb30 g     O .rodata	00000014 __thenan_df
008064fc g     F .text	0000012c _malloc_trim_r
0081c554 g       *ABS*	00000000 __CTOR_END__
008042f4 g     F .text	0000001c finite
0081eed0 g     O .rwdata	00000002 OSFlagNodeSize
0081ef18 g     O .rwdata	00000002 OSTmrCfgMax
0080deb0 g     F .text	000000bc strcmp
008146b8 g     F .text	00000214 OSQCreate
00817324 g     F .text	000001b8 OSTaskNameGet
0081c554 g       *ABS*	00000000 __flash_rodata_start
00815438 g     F .text	00000234 OSQPostOpt
00810ef0 g     F .text	00000240 OSTimeTick
0081ef00 g     O .rwdata	00000002 OSTaskMax
0081c554 g       *ABS*	00000000 __DTOR_LIST__
00815958 g     F .text	00000114 OSSemCreate
0081ef24 g     O .rwdata	00000002 OSTmrWheelSize
00804748 g     F .text	00000024 copysign
00805314 g     F .text	00000088 __nedf2
0081eefa g     O .rwdata	00000002 OSTaskDelEn
00828df0 g     O .bss	00000014 sem_owner_task_name
0081622c g     F .text	00000130 OSSemQuery
008148cc g     F .text	00000300 OSQDel
00814fb4 g     F .text	0000017c OSQPendAbort
00800a40 g     F .text	000009d8 parse_GGA
0081843c g     F .text	00000034 alt_irq_init
0080fbf0 g     F .text	00000060 alt_release_fd
00807f78 g     F .text	00000074 sprintf
0081cb44 g     O .rodata	00000100 __clz_tab
00820c84 g     O .bss	00000004 _PathLocale
0081c328 g     F .text	00000014 atexit
0080a134 g     F .text	00000078 _write_r
00810c64 g     F .text	0000008c OSSchedLock
0080c32c g     F .text	0000001c setlocale
00812754 g     F .text	0000013c OSFlagCreate
00820c58 g     O .bss	00000001 return_code
0081ee7c g     O .rwdata	00000004 _impure_ptr
00820c8c g     O .bss	00000004 alt_argc
00804568 g     F .text	000001e0 scalbn
0081b240 g     F .text	00000064 _do_dtors
0081eeca g     O .rwdata	00000002 OSEventMultiEn
00820d10 g     O .bss	0000000c latitude
0080693c g     F .text	0000043c _fseek_r
00807cc8 g     F .text	000001c4 __srefill_r
00812890 g     F .text	000002a8 OSFlagDel
00820cdc g     O .bss	00000004 OSEventFreeList
00800020 g       .exceptions	00000000 alt_irq_entry
0080c7e0 g     F .text	00000080 __ulp
0080de70 g     F .text	00000040 __isinfd
00812dd0 g     F .text	00000644 OSFlagPend
0081ef16 g     O .rwdata	00000002 OSTmrEn
008061e8 g     F .text	00000018 __fp_unlock_all
0081a1d4 g     F .text	00000058 altera_avalon_lcd_16207_write_fd
0081ee94 g     O .rwdata	00000008 alt_fs_list
008001f8 g     F .text	00000044 alt_ucosii_check_return_code
00811cf0 g     F .text	00000080 OS_StrCopy
0081eee0 g     O .rwdata	00000002 OSMemNameSize
00804348 g     F .text	00000010 nan
0081c0f4 g     F .text	0000001c OSInitHookEnd
00800020 g       *ABS*	00000000 __ram_exceptions_start
0081ef0c g     O .rwdata	00000002 OSTCBPrioTblMax
0080c298 g     F .text	00000010 localeconv
00804014 g     F .text	000002c8 __ieee754_sqrt
0081ef08 g     O .rwdata	00000002 OSTaskStatStkChkEn
008015cc g     F .text	00000248 GMT_to_MST
0081b57c g     F .text	00000050 alt_ic_isr_register
0081eedc g     O .rwdata	00000002 OSMemEn
0080702c g     F .text	00000040 fwrite
0081eee6 g     O .rwdata	00000002 OSMutexEn
0081ef40 g       *ABS*	00000000 _edata
0081a32c g     F .text	00000058 altera_avalon_uart_read_fd
0082e2b8 g       *ABS*	00000000 _end
00820ce0 g     O .bss	00000001 OSIntNesting
008001bc g       *ABS*	00000000 __ram_exceptions_end
00818c08 g     F .text	000000f4 altera_avalon_jtag_uart_ioctl
00818164 g     F .text	00000210 OSTimeDlyResume
00812c7c g     F .text	00000154 OSFlagNameSet
008178b8 g     F .text	000001fc OSTaskStkChk
0081b668 g     F .text	000000a0 alt_ic_irq_disable
0081eee2 g     O .rwdata	00000002 OSMemSize
008080bc g     F .text	0000007c __swrite
0081ee84 g     O .rwdata	00000004 __malloc_trim_threshold
0081bc44 g     F .text	00000020 altera_nios2_qsys_irq_init
00820ce4 g     O .bss	00000004 OSTCBCur
00805d40 g     F .text	00000038 exit
0081eee4 g     O .rwdata	00000002 OSMemTblSize
00806e10 g     F .text	000000c8 _fwalk_reent
0080cddc g     F .text	0000018c __mdiff
0080eff0 g     F .text	00000060 __modsi3
01000000 g       *ABS*	00000000 __alt_data_end
00800020 g     F .exceptions	00000000 alt_exception
00806128 g     F .text	00000004 __sfp_lock_release
00810a94 g     F .text	00000054 OSInit
00817ce0 g     F .text	00000144 OSTaskQuery
008157ec g     F .text	000000ac OS_QInit
00811d70 g     F .text	00000058 OS_StrLen
00814188 g     F .text	00000120 OSMemNameSet
0081cfc4 g     O .rodata	00000101 _ctype_
008006e8 g     F .text	00000358 checksum
0081eefe g     O .rwdata	00000002 OSTaskProfileEn
00820ce8 g     O .bss	00000004 OSTime
0081a940 g     F .text	00000060 altera_avalon_uart_close
0082c784 g     O .bss	00000800 OSTaskIdleStk
0080638c g     F .text	000000f4 _fopen_r
0080f228 g     F .text	0000002c _exit
00804310 g     F .text	00000030 __isnand
0081af58 g     F .text	00000154 alt_alarm_start
00812b38 g     F .text	00000144 OSFlagNameGet
00818374 g     F .text	00000064 OSTimeGet
00805704 g     F .text	00000098 __muldi3
00807194 g     F .text	00000194 __smakebuf_r
00808198 g     F .text	00000074 strlen
0081c084 g     F .text	0000001c OSTaskSwHook
0080f888 g     F .text	00000188 open
0082cf84 g     O .bss	00000b40 OSEventTbl
0080ecf8 g     F .text	00000088 __gedf2
0082dac4 g     O .bss	00000510 OSTCBTbl
0081635c g     F .text	00000104 OSSemSet
0081b54c g     F .text	00000030 alt_icache_flush_all
0081ef30 g     O .rwdata	00000004 alt_priority_mask
00815a6c g     F .text	000002a0 OSSemDel
00820cec g     O .bss	00000004 OSFlagFreeList
00820c5c g     O .bss	00000004 temp_inc2
0080244c g     F .text	0000008c task3
0081b5cc g     F .text	0000009c alt_ic_irq_enable
0081eec4 g     O .rwdata	00000002 OSEventNameSize
0080a110 g     F .text	00000024 __vfprintf_internal
00820cf0 g     O .bss	00000001 OSStatRdy
0082dfd4 g     O .bss	00000054 OSTCBPrioTbl
0081a9a0 g     F .text	000002b0 altera_avalon_uart_read
0080fe8c g     F .text	000000ac __env_lock
0081ef0a g     O .rwdata	00000002 OSTaskSwHookEn
00804b7c g     F .text	00000080 __subdf3
0080c6bc g     F .text	000000c4 __lo0bits
0081ef34 g     O .rwdata	00000008 alt_alarm_list
0081eed2 g     O .rwdata	00000002 OSFlagWidth
0081b1dc g     F .text	00000064 _do_ctors
00820c60 g     O .bss	00000008 height
0080f060 g     F .text	000000fc close
00828e04 g     O .bss	00002000 task5_stk
00820c9c g     O .bss	00000004 alt_envsem
00820cf4 g     O .bss	00000004 OSIdleCtrRun
00811130 g     F .text	00000020 OSVersion
0081ef1c g     O .rwdata	00000002 OSTmrCfgWheelSize
0080f4a8 g     F .text	00000080 alt_load
00817e24 g     F .text	0000007c OS_TaskStkClr
0080581c g     F .text	00000314 __pack_d
0081eef6 g     O .rwdata	00000002 OSTaskCreateEn
00820c68 g     O .bss	00000001 aorp
00801814 g     F .text	00000198 m_to_ft
00811720 g     F .text	00000068 OS_EventWaitListInit
0081c110 g     F .text	0000001c OSTaskIdleHook
00000000  w      *UND*	00000000 free
0080612c g     F .text	00000004 __sinit_lock_acquire
0080d2d8 g     F .text	00000100 __multadd
00817ab4 g     F .text	0000022c OSTaskSuspend
0080c624 g     F .text	00000028 _Bfree
00811dc8 g     F .text	0000005c OS_TaskIdle
0081ef22 g     O .rwdata	00000002 OSTmrTblSize
0081566c g     F .text	00000180 OSQQuery



Disassembly of section .entry:

00800000 <__reset>:
#if NIOS2_ICACHE_SIZE > 0 && defined(ALT_ALLOW_CODE_AT_RESET) && !defined(ALT_SIM_OPTIMIZE)
    /* Assume the instruction cache size is always a power of two. */
#if NIOS2_ICACHE_SIZE > 0x8000
    movhi r2, %hi(NIOS2_ICACHE_SIZE)
#else
    movui r2, NIOS2_ICACHE_SIZE
  800000:	00840014 	movui	r2,4096
#endif

0:
    initi r2
  800004:	1001483a 	initi	r2
    addi r2, r2, -NIOS2_ICACHE_LINE_SIZE
  800008:	10bff804 	addi	r2,r2,-32
    bgt r2, zero, 0b
  80000c:	00bffd16 	blt	zero,r2,800004 <__reset+0x4>
 * Jump to the _start entry point in the .text section if reset code
 * is allowed or if optimizing for RTL simulation.
 */
#if defined(ALT_ALLOW_CODE_AT_RESET) || defined(ALT_SIM_OPTIMIZE)
    /* Jump to the _start entry point in the .text section. */
    movhi r1, %hi(_start)
  800010:	00402034 	movhi	at,128
    ori r1, r1, %lo(_start)
  800014:	08406f14 	ori	at,at,444
    jmp r1
  800018:	0800683a 	jmp	at
  80001c:	00000000 	call	0 <OSTCBStkPtr_OFFSET>

Disassembly of section .exceptions:

00800020 <alt_exception>:
         * Process an exception.  For all exceptions we must preserve all
         * caller saved registers on the stack (See the Nios2 ABI
         * documentation for details).
         */

        addi  sp, sp, -76
  800020:	deffed04 	addi	sp,sp,-76

#endif

#endif

        stw   ra,  0(sp)
  800024:	dfc00015 	stw	ra,0(sp)
        /*
         * Leave a gap in the stack frame at 4(sp) for the muldiv handler to
         * store zero into.
         */

        stw   r1,   8(sp)
  800028:	d8400215 	stw	at,8(sp)
        stw   r2,  12(sp)
  80002c:	d8800315 	stw	r2,12(sp)
        stw   r3,  16(sp)
  800030:	d8c00415 	stw	r3,16(sp)
        stw   r4,  20(sp)
  800034:	d9000515 	stw	r4,20(sp)
        stw   r5,  24(sp)
  800038:	d9400615 	stw	r5,24(sp)
        stw   r6,  28(sp)
  80003c:	d9800715 	stw	r6,28(sp)
        stw   r7,  32(sp)
  800040:	d9c00815 	stw	r7,32(sp)

        rdctl r5, estatus
  800044:	000b307a 	rdctl	r5,estatus

        stw   r8,  36(sp)
  800048:	da000915 	stw	r8,36(sp)
        stw   r9,  40(sp)
  80004c:	da400a15 	stw	r9,40(sp)
        stw   r10, 44(sp)
  800050:	da800b15 	stw	r10,44(sp)
        stw   r11, 48(sp)
  800054:	dac00c15 	stw	r11,48(sp)
        stw   r12, 52(sp)
  800058:	db000d15 	stw	r12,52(sp)
        stw   r13, 56(sp)
  80005c:	db400e15 	stw	r13,56(sp)
        stw   r14, 60(sp)
  800060:	db800f15 	stw	r14,60(sp)
        stw   r15, 64(sp)
  800064:	dbc01015 	stw	r15,64(sp)
        /*
         * ea-4 contains the address of the instruction being executed
         * when the exception occured. For interrupt exceptions, we will
         * will be re-issue the isntruction. Store it in 72(sp)
         */
        stw   r5,  68(sp)  /* estatus */
  800068:	d9401115 	stw	r5,68(sp)
        addi  r15, ea, -4  /* instruction that caused exception */
  80006c:	ebffff04 	addi	r15,ea,-4
        stw   r15,  72(sp)
  800070:	dbc01215 	stw	r15,72(sp)
#else
        /*
         * Test to see if the exception was a software exception or caused 
         * by an external interrupt, and vector accordingly.
         */
        rdctl r4, ipending
  800074:	0009313a 	rdctl	r4,ipending
        andi  r2, r5, 1
  800078:	2880004c 	andi	r2,r5,1
        beq   r2, zero, .Lnot_irq
  80007c:	10000326 	beq	r2,zero,80008c <alt_exception+0x6c>
        beq   r4, zero, .Lnot_irq
  800080:	20000226 	beq	r4,zero,80008c <alt_exception+0x6c>
        /*
         * Now that all necessary registers have been preserved, call 
         * alt_irq_handler() to process the interrupts.
         */

        call alt_irq_handler
  800084:	08000ec0 	call	8000ec <alt_irq_handler>

        .section .exceptions.irqreturn, "xa"

        br    .Lexception_exit
  800088:	00000306 	br	800098 <alt_exception+0x78>
         * upon completion, so we write ea (address of instruction *after*
         * the one where the exception occured) into 72(sp). The actual
         * instruction that caused the exception is written in r2, which these
         * handlers will utilize.
         */
        stw   ea,  72(sp)  /* Don't re-issue */
  80008c:	df401215 	stw	ea,72(sp)
        ldw   r2, -4(ea)   /* Instruction that caused exception */
  800090:	e8bfff17 	ldw	r2,-4(ea)
#ifdef NIOS2_HAS_DEBUG_STUB
       /*
        *  Either tell the user now (if there is a debugger attached) or go into
        *  the debug monitor which will loop until a debugger is attached.
        */
        break
  800094:	003da03a 	break	0
        /* 
         * Restore the saved registers, so that all general purpose registers 
         * have been restored to their state at the time the interrupt occured.
         */

        ldw   r5,  68(sp)
  800098:	d9401117 	ldw	r5,68(sp)
        ldw   ea,  72(sp)  /* This becomes the PC once eret is executed */
  80009c:	df401217 	ldw	ea,72(sp)
        ldw   ra,   0(sp)
  8000a0:	dfc00017 	ldw	ra,0(sp)

        wrctl estatus, r5
  8000a4:	2801707a 	wrctl	estatus,r5

        ldw   r1,   8(sp)
  8000a8:	d8400217 	ldw	at,8(sp)
        ldw   r2,  12(sp)
  8000ac:	d8800317 	ldw	r2,12(sp)
        ldw   r3,  16(sp)
  8000b0:	d8c00417 	ldw	r3,16(sp)
        ldw   r4,  20(sp)
  8000b4:	d9000517 	ldw	r4,20(sp)
        ldw   r5,  24(sp)
  8000b8:	d9400617 	ldw	r5,24(sp)
        ldw   r6,  28(sp)
  8000bc:	d9800717 	ldw	r6,28(sp)
        ldw   r7,  32(sp)
  8000c0:	d9c00817 	ldw	r7,32(sp)
#ifdef ALT_STACK_CHECK
        ldw   et, %gprel(alt_exception_old_stack_limit)(gp)
#endif
#endif

        ldw   r8,  36(sp)
  8000c4:	da000917 	ldw	r8,36(sp)
        ldw   r9,  40(sp)
  8000c8:	da400a17 	ldw	r9,40(sp)
        ldw   r10, 44(sp)
  8000cc:	da800b17 	ldw	r10,44(sp)
        ldw   r11, 48(sp)
  8000d0:	dac00c17 	ldw	r11,48(sp)
        ldw   r12, 52(sp)
  8000d4:	db000d17 	ldw	r12,52(sp)
        ldw   r13, 56(sp)
  8000d8:	db400e17 	ldw	r13,56(sp)
        ldw   r14, 60(sp)
  8000dc:	db800f17 	ldw	r14,60(sp)
        ldw   r15, 64(sp)
  8000e0:	dbc01017 	ldw	r15,64(sp)
#endif

        ldw   sp,  76(sp)

#else
        addi  sp, sp, 76
  8000e4:	dec01304 	addi	sp,sp,76

        /*
         * Return to the interrupted instruction.
         */

        eret
  8000e8:	ef80083a 	eret

008000ec <alt_irq_handler>:
 * instruction is present if the macro ALT_CI_INTERRUPT_VECTOR defined.
 */

void alt_irq_handler (void) __attribute__ ((section (".exceptions")));
void alt_irq_handler (void)
{
  8000ec:	defff904 	addi	sp,sp,-28
  8000f0:	dfc00615 	stw	ra,24(sp)
  8000f4:	df000515 	stw	fp,20(sp)
  8000f8:	df000504 	addi	fp,sp,20
  
  /*
   * Notify the operating system that we are at interrupt level.
   */ 
  
  ALT_OS_INT_ENTER();
  8000fc:	0810ae80 	call	810ae8 <OSIntEnter>
#ifndef NIOS2_EIC_PRESENT
static ALT_INLINE alt_u32 ALT_ALWAYS_INLINE alt_irq_pending (void)
{
  alt_u32 active;

  NIOS2_READ_IPENDING (active);
  800100:	0005313a 	rdctl	r2,ipending
  800104:	e0bffc15 	stw	r2,-16(fp)

  return active;
  800108:	e0bffc17 	ldw	r2,-16(fp)
   * Consider the case where the high priority interupt is asserted during
   * the interrupt entry sequence for a lower priority interrupt to see why
   * this is the case.
   */

  active = alt_irq_pending ();
  80010c:	e0bfff15 	stw	r2,-4(fp)

  do
  {
    i = 0;
  800110:	e03ffd15 	stw	zero,-12(fp)
    mask = 1;
  800114:	00800044 	movi	r2,1
  800118:	e0bffe15 	stw	r2,-8(fp)
     * called to clear the interrupt condition.
     */

    do
    {
      if (active & mask)
  80011c:	e0ffff17 	ldw	r3,-4(fp)
  800120:	e0bffe17 	ldw	r2,-8(fp)
  800124:	1884703a 	and	r2,r3,r2
  800128:	1005003a 	cmpeq	r2,r2,zero
  80012c:	1000161e 	bne	r2,zero,800188 <alt_irq_handler+0x9c>
      { 
#ifdef ALT_ENHANCED_INTERRUPT_API_PRESENT
        alt_irq[i].handler(alt_irq[i].context); 
  800130:	e0bffd17 	ldw	r2,-12(fp)
  800134:	00c020f4 	movhi	r3,131
  800138:	18f80a04 	addi	r3,r3,-8152
  80013c:	100490fa 	slli	r2,r2,3
  800140:	10c5883a 	add	r2,r2,r3
  800144:	11400017 	ldw	r5,0(r2)
  800148:	e0bffd17 	ldw	r2,-12(fp)
  80014c:	00c020f4 	movhi	r3,131
  800150:	18f80a04 	addi	r3,r3,-8152
  800154:	100490fa 	slli	r2,r2,3
  800158:	10c5883a 	add	r2,r2,r3
  80015c:	10800104 	addi	r2,r2,4
  800160:	11000017 	ldw	r4,0(r2)
  800164:	283ee83a 	callr	r5
#ifndef NIOS2_EIC_PRESENT
static ALT_INLINE alt_u32 ALT_ALWAYS_INLINE alt_irq_pending (void)
{
  alt_u32 active;

  NIOS2_READ_IPENDING (active);
  800168:	0005313a 	rdctl	r2,ipending
  80016c:	e0bffb15 	stw	r2,-20(fp)

  return active;
  800170:	e0bffb17 	ldw	r2,-20(fp)
      mask <<= 1;
      i++;

    } while (1);

    active = alt_irq_pending ();
  800174:	e0bfff15 	stw	r2,-4(fp)
    
  } while (active);
  800178:	e0bfff17 	ldw	r2,-4(fp)
  80017c:	1004c03a 	cmpne	r2,r2,zero
  800180:	103fe31e 	bne	r2,zero,800110 <alt_irq_handler+0x24>
  800184:	00000706 	br	8001a4 <alt_irq_handler+0xb8>
#else
        alt_irq[i].handler(alt_irq[i].context, i); 
#endif
        break;
      }
      mask <<= 1;
  800188:	e0bffe17 	ldw	r2,-8(fp)
  80018c:	1085883a 	add	r2,r2,r2
  800190:	e0bffe15 	stw	r2,-8(fp)
      i++;
  800194:	e0bffd17 	ldw	r2,-12(fp)
  800198:	10800044 	addi	r2,r2,1
  80019c:	e0bffd15 	stw	r2,-12(fp)

    } while (1);
  8001a0:	003fde06 	br	80011c <alt_irq_handler+0x30>

  /*
   * Notify the operating system that interrupt processing is complete.
   */ 

  ALT_OS_INT_EXIT();
  8001a4:	0810b640 	call	810b64 <OSIntExit>
}
  8001a8:	e037883a 	mov	sp,fp
  8001ac:	dfc00117 	ldw	ra,4(sp)
  8001b0:	df000017 	ldw	fp,0(sp)
  8001b4:	dec00204 	addi	sp,sp,8
  8001b8:	f800283a 	ret

Disassembly of section .text:

008001bc <_start>:
#if (NIOS2_NUM_OF_SHADOW_REG_SETS == 0)    
    /*
     * Now that the caches are initialized, set up the stack pointer.
     * The value provided by the linker is assumed to be correctly aligned.
     */
    movhi sp, %hi(__alt_stack_pointer)
  8001bc:	06c04034 	movhi	sp,256
    ori sp, sp, %lo(__alt_stack_pointer)
  8001c0:	dec00014 	ori	sp,sp,0

    /* Set up the global pointer. */
    movhi gp, %hi(_gp)
  8001c4:	068020b4 	movhi	gp,130
    ori gp, gp, %lo(_gp)
  8001c8:	d69b9e14 	ori	gp,gp,28280
 */
#ifndef ALT_SIM_OPTIMIZE
    /* Log that the BSS is about to be cleared. */
    ALT_LOG_PUTS(alt_log_msg_bss)

    movhi r2, %hi(__bss_start)
  8001cc:	008020b4 	movhi	r2,130
    ori r2, r2, %lo(__bss_start)
  8001d0:	10830e14 	ori	r2,r2,3128

    movhi r3, %hi(__bss_end)
  8001d4:	00c020b4 	movhi	r3,130
    ori r3, r3, %lo(__bss_end)
  8001d8:	18f8ae14 	ori	r3,r3,58040

    beq r2, r3, 1f
  8001dc:	10c00326 	beq	r2,r3,8001ec <_start+0x30>

0:
    stw zero, (r2)
  8001e0:	10000015 	stw	zero,0(r2)
    addi r2, r2, 4
  8001e4:	10800104 	addi	r2,r2,4
    bltu r2, r3, 0b
  8001e8:	10fffd36 	bltu	r2,r3,8001e0 <_start+0x24>
     * section aren't defined until alt_load() has been called).
     */
    mov   et, zero
#endif

    call alt_load
  8001ec:	080f4a80 	call	80f4a8 <alt_load>

    /* Log that alt_main is about to be called. */
    ALT_LOG_PUTS(alt_log_msg_alt_main)

    /* Call the C entry point. It should never return. */
    call alt_main
  8001f0:	080f6e40 	call	80f6e4 <alt_main>

008001f4 <alt_after_alt_main>:

    /* Wait in infinite loop in case alt_main does return. */
alt_after_alt_main:
    br alt_after_alt_main
  8001f4:	003fff06 	br	8001f4 <alt_after_alt_main>

008001f8 <alt_ucosii_check_return_code>:
 */



void alt_ucosii_check_return_code(INT8U return_code)
{
  8001f8:	defffd04 	addi	sp,sp,-12
  8001fc:	dfc00215 	stw	ra,8(sp)
  800200:	df000115 	stw	fp,4(sp)
  800204:	df000104 	addi	fp,sp,4
  800208:	e13fff05 	stb	r4,-4(fp)
  if(return_code != OS_NO_ERR)
  80020c:	e0bfff03 	ldbu	r2,-4(fp)
  800210:	1005003a 	cmpeq	r2,r2,zero
  800214:	1000041e 	bne	r2,zero,800228 <alt_ucosii_check_return_code+0x30>
  {
    OSSchedLock();  /* Disable Task Switching but still service other IRQs */
  800218:	0810c640 	call	810c64 <OSSchedLock>
    alt_ucosii_simple_error_handler(return_code);
  80021c:	e13fff03 	ldbu	r4,-4(fp)
  800220:	080023c0 	call	80023c <alt_ucosii_simple_error_handler>
    OSSchedUnlock(); /* Enable Task Switching */
  800224:	0810cf00 	call	810cf0 <OSSchedUnlock>
  }
}
  800228:	e037883a 	mov	sp,fp
  80022c:	dfc00117 	ldw	ra,4(sp)
  800230:	df000017 	ldw	fp,0(sp)
  800234:	dec00204 	addi	sp,sp,8
  800238:	f800283a 	ret

0080023c <alt_ucosii_simple_error_handler>:
 * controls the flow that is taken from different errors occurring at different
 * locations in the application code.
 */

void alt_ucosii_simple_error_handler(INT8U return_code)
{
  80023c:	defffc04 	addi	sp,sp,-16
  800240:	dfc00315 	stw	ra,12(sp)
  800244:	df000215 	stw	fp,8(sp)
  800248:	df000204 	addi	fp,sp,8
  80024c:	e13ffe05 	stb	r4,-8(fp)
  printf("[Program Error]: See STDERR\n");
  800250:	010020b4 	movhi	r4,130
  800254:	21315504 	addi	r4,r4,-15020
  800258:	0807cb40 	call	807cb4 <puts>
  switch (return_code) {
  80025c:	e0bffe03 	ldbu	r2,-8(fp)
  800260:	e0bfff15 	stw	r2,-4(fp)
  800264:	e0ffff17 	ldw	r3,-4(fp)
  800268:	18801968 	cmpgeui	r2,r3,101
  80026c:	10010a1e 	bne	r2,zero,800698 <alt_ucosii_simple_error_handler+0x45c>
  800270:	e13fff17 	ldw	r4,-4(fp)
  800274:	e13fff17 	ldw	r4,-4(fp)
  800278:	2105883a 	add	r2,r4,r4
  80027c:	1087883a 	add	r3,r2,r2
  800280:	00802034 	movhi	r2,128
  800284:	1080a504 	addi	r2,r2,660
  800288:	1885883a 	add	r2,r3,r2
  80028c:	10800017 	ldw	r2,0(r2)
  800290:	1000683a 	jmp	r2
  800294:	00800698 	cmpnei	r2,zero,26
  800298:	00800508 	cmpgei	r2,zero,20
  80029c:	008005a8 	cmpgeui	r2,zero,22
  8002a0:	00800558 	cmpnei	r2,zero,21
  8002a4:	00800530 	cmpltui	r2,zero,20
  8002a8:	00800698 	cmpnei	r2,zero,26
  8002ac:	00800698 	cmpnei	r2,zero,26
  8002b0:	00800698 	cmpnei	r2,zero,26
  8002b4:	00800698 	cmpnei	r2,zero,26
  8002b8:	00800698 	cmpnei	r2,zero,26
  8002bc:	00800580 	call	80058 <OSCtxSw_SWITCH_PC+0x80018>
  8002c0:	00800698 	cmpnei	r2,zero,26
  8002c4:	00800698 	cmpnei	r2,zero,26
  8002c8:	00800698 	cmpnei	r2,zero,26
  8002cc:	00800698 	cmpnei	r2,zero,26
  8002d0:	00800698 	cmpnei	r2,zero,26
  8002d4:	00800698 	cmpnei	r2,zero,26
  8002d8:	00800698 	cmpnei	r2,zero,26
  8002dc:	00800698 	cmpnei	r2,zero,26
  8002e0:	00800698 	cmpnei	r2,zero,26
  8002e4:	008004e0 	cmpeqi	r2,zero,19
  8002e8:	00800698 	cmpnei	r2,zero,26
  8002ec:	00800698 	cmpnei	r2,zero,26
  8002f0:	00800698 	cmpnei	r2,zero,26
  8002f4:	00800698 	cmpnei	r2,zero,26
  8002f8:	00800698 	cmpnei	r2,zero,26
  8002fc:	00800698 	cmpnei	r2,zero,26
  800300:	00800698 	cmpnei	r2,zero,26
  800304:	00800698 	cmpnei	r2,zero,26
  800308:	00800698 	cmpnei	r2,zero,26
  80030c:	00800648 	cmpgei	r2,zero,25
  800310:	00800698 	cmpnei	r2,zero,26
  800314:	00800698 	cmpnei	r2,zero,26
  800318:	00800698 	cmpnei	r2,zero,26
  80031c:	00800698 	cmpnei	r2,zero,26
  800320:	00800698 	cmpnei	r2,zero,26
  800324:	00800698 	cmpnei	r2,zero,26
  800328:	00800698 	cmpnei	r2,zero,26
  80032c:	00800698 	cmpnei	r2,zero,26
  800330:	00800698 	cmpnei	r2,zero,26
  800334:	00800428 	cmpgeui	r2,zero,16
  800338:	00800698 	cmpnei	r2,zero,26
  80033c:	00800450 	cmplti	r2,zero,17
  800340:	00800698 	cmpnei	r2,zero,26
  800344:	00800698 	cmpnei	r2,zero,26
  800348:	00800698 	cmpnei	r2,zero,26
  80034c:	00800698 	cmpnei	r2,zero,26
  800350:	00800698 	cmpnei	r2,zero,26
  800354:	00800698 	cmpnei	r2,zero,26
  800358:	00800698 	cmpnei	r2,zero,26
  80035c:	00800698 	cmpnei	r2,zero,26
  800360:	00800698 	cmpnei	r2,zero,26
  800364:	00800698 	cmpnei	r2,zero,26
  800368:	00800698 	cmpnei	r2,zero,26
  80036c:	00800698 	cmpnei	r2,zero,26
  800370:	00800698 	cmpnei	r2,zero,26
  800374:	00800698 	cmpnei	r2,zero,26
  800378:	00800698 	cmpnei	r2,zero,26
  80037c:	00800698 	cmpnei	r2,zero,26
  800380:	00800698 	cmpnei	r2,zero,26
  800384:	00800698 	cmpnei	r2,zero,26
  800388:	008005f8 	rdprs	r2,zero,23
  80038c:	008005d0 	cmplti	r2,zero,23
  800390:	00800698 	cmpnei	r2,zero,26
  800394:	00800620 	cmpeqi	r2,zero,24
  800398:	00800698 	cmpnei	r2,zero,26
  80039c:	00800498 	cmpnei	r2,zero,18
  8003a0:	00800698 	cmpnei	r2,zero,26
  8003a4:	00800698 	cmpnei	r2,zero,26
  8003a8:	00800698 	cmpnei	r2,zero,26
  8003ac:	00800698 	cmpnei	r2,zero,26
  8003b0:	00800698 	cmpnei	r2,zero,26
  8003b4:	00800698 	cmpnei	r2,zero,26
  8003b8:	00800698 	cmpnei	r2,zero,26
  8003bc:	00800698 	cmpnei	r2,zero,26
  8003c0:	00800698 	cmpnei	r2,zero,26
  8003c4:	00800698 	cmpnei	r2,zero,26
  8003c8:	00800698 	cmpnei	r2,zero,26
  8003cc:	00800698 	cmpnei	r2,zero,26
  8003d0:	00800698 	cmpnei	r2,zero,26
  8003d4:	00800698 	cmpnei	r2,zero,26
  8003d8:	00800698 	cmpnei	r2,zero,26
  8003dc:	00800698 	cmpnei	r2,zero,26
  8003e0:	00800698 	cmpnei	r2,zero,26
  8003e4:	00800698 	cmpnei	r2,zero,26
  8003e8:	00800698 	cmpnei	r2,zero,26
  8003ec:	00800698 	cmpnei	r2,zero,26
  8003f0:	00800698 	cmpnei	r2,zero,26
  8003f4:	00800698 	cmpnei	r2,zero,26
  8003f8:	00800698 	cmpnei	r2,zero,26
  8003fc:	00800698 	cmpnei	r2,zero,26
  800400:	00800698 	cmpnei	r2,zero,26
  800404:	00800698 	cmpnei	r2,zero,26
  800408:	00800698 	cmpnei	r2,zero,26
  80040c:	00800698 	cmpnei	r2,zero,26
  800410:	00800698 	cmpnei	r2,zero,26
  800414:	00800698 	cmpnei	r2,zero,26
  800418:	00800698 	cmpnei	r2,zero,26
  80041c:	00800698 	cmpnei	r2,zero,26
  800420:	00800698 	cmpnei	r2,zero,26
  800424:	00800670 	cmpltui	r2,zero,25
    case OS_PRIO_EXIST:
      fprintf(stderr, "Attempted to assign a task priority that is aready in use.\n");
  800428:	008020b4 	movhi	r2,130
  80042c:	10bb9f04 	addi	r2,r2,-4484
  800430:	10800017 	ldw	r2,0(r2)
  800434:	11c00317 	ldw	r7,12(r2)
  800438:	010020b4 	movhi	r4,130
  80043c:	21315c04 	addi	r4,r4,-14992
  800440:	01400044 	movi	r5,1
  800444:	01800ec4 	movi	r6,59
  800448:	080702c0 	call	80702c <fwrite>
      break;
  80044c:	00009b06 	br	8006bc <alt_ucosii_simple_error_handler+0x480>
    case OS_PRIO_INVALID:
      fprintf(stderr, "Specified a task priority higher than the allowed maximum.\n");
  800450:	008020b4 	movhi	r2,130
  800454:	10bb9f04 	addi	r2,r2,-4484
  800458:	10800017 	ldw	r2,0(r2)
  80045c:	11c00317 	ldw	r7,12(r2)
  800460:	010020b4 	movhi	r4,130
  800464:	21316b04 	addi	r4,r4,-14932
  800468:	01400044 	movi	r5,1
  80046c:	01800ec4 	movi	r6,59
  800470:	080702c0 	call	80702c <fwrite>
      fprintf(stderr, "Task can not be assigned a priority higher than %d\n",OS_LOWEST_PRIO);
  800474:	008020b4 	movhi	r2,130
  800478:	10bb9f04 	addi	r2,r2,-4484
  80047c:	10800017 	ldw	r2,0(r2)
  800480:	11000317 	ldw	r4,12(r2)
  800484:	014020b4 	movhi	r5,130
  800488:	29717a04 	addi	r5,r5,-14872
  80048c:	01800504 	movi	r6,20
  800490:	080649c0 	call	80649c <fprintf>
      break;
  800494:	00008906 	br	8006bc <alt_ucosii_simple_error_handler+0x480>
    case OS_NO_MORE_TCB:
      fprintf(stderr, "Task Control Blocks have been exhausted\n");
  800498:	008020b4 	movhi	r2,130
  80049c:	10bb9f04 	addi	r2,r2,-4484
  8004a0:	10800017 	ldw	r2,0(r2)
  8004a4:	11c00317 	ldw	r7,12(r2)
  8004a8:	010020b4 	movhi	r4,130
  8004ac:	21318704 	addi	r4,r4,-14820
  8004b0:	01400044 	movi	r5,1
  8004b4:	01800a04 	movi	r6,40
  8004b8:	080702c0 	call	80702c <fwrite>
      fprintf(stderr, "The current max number of task is %d\n",OS_MAX_TASKS);
  8004bc:	008020b4 	movhi	r2,130
  8004c0:	10bb9f04 	addi	r2,r2,-4484
  8004c4:	10800017 	ldw	r2,0(r2)
  8004c8:	11000317 	ldw	r4,12(r2)
  8004cc:	014020b4 	movhi	r5,130
  8004d0:	29719204 	addi	r5,r5,-14776
  8004d4:	01800284 	movi	r6,10
  8004d8:	080649c0 	call	80649c <fprintf>
      break;
  8004dc:	00007706 	br	8006bc <alt_ucosii_simple_error_handler+0x480>
    case OS_MBOX_FULL:
      fprintf(stderr, "Attempted a Post to a Mailbox that already contains a message\n");
  8004e0:	008020b4 	movhi	r2,130
  8004e4:	10bb9f04 	addi	r2,r2,-4484
  8004e8:	10800017 	ldw	r2,0(r2)
  8004ec:	11c00317 	ldw	r7,12(r2)
  8004f0:	010020b4 	movhi	r4,130
  8004f4:	21319c04 	addi	r4,r4,-14736
  8004f8:	01400044 	movi	r5,1
  8004fc:	01800f84 	movi	r6,62
  800500:	080702c0 	call	80702c <fwrite>
      break;
  800504:	00006d06 	br	8006bc <alt_ucosii_simple_error_handler+0x480>
    case OS_ERR_EVENT_TYPE:
      fprintf(stderr, "Attempted to access a resource that doesn't match the required data type\n");
  800508:	008020b4 	movhi	r2,130
  80050c:	10bb9f04 	addi	r2,r2,-4484
  800510:	10800017 	ldw	r2,0(r2)
  800514:	11c00317 	ldw	r7,12(r2)
  800518:	010020b4 	movhi	r4,130
  80051c:	2131ac04 	addi	r4,r4,-14672
  800520:	01400044 	movi	r5,1
  800524:	01801244 	movi	r6,73
  800528:	080702c0 	call	80702c <fwrite>
      break;
  80052c:	00006306 	br	8006bc <alt_ucosii_simple_error_handler+0x480>
    case OS_ERR_PEVENT_NULL:
      fprintf(stderr, "Attempting access a resource that is pointing to NULL\n");
  800530:	008020b4 	movhi	r2,130
  800534:	10bb9f04 	addi	r2,r2,-4484
  800538:	10800017 	ldw	r2,0(r2)
  80053c:	11c00317 	ldw	r7,12(r2)
  800540:	010020b4 	movhi	r4,130
  800544:	2131bf04 	addi	r4,r4,-14596
  800548:	01400044 	movi	r5,1
  80054c:	01800d84 	movi	r6,54
  800550:	080702c0 	call	80702c <fwrite>
      break;
  800554:	00005906 	br	8006bc <alt_ucosii_simple_error_handler+0x480>
    case OS_ERR_POST_NULL_PTR:
      fprintf(stderr, "Attempted to Post a NULL to a resource. \n");
  800558:	008020b4 	movhi	r2,130
  80055c:	10bb9f04 	addi	r2,r2,-4484
  800560:	10800017 	ldw	r2,0(r2)
  800564:	11c00317 	ldw	r7,12(r2)
  800568:	010020b4 	movhi	r4,130
  80056c:	2131cd04 	addi	r4,r4,-14540
  800570:	01400044 	movi	r5,1
  800574:	01800a44 	movi	r6,41
  800578:	080702c0 	call	80702c <fwrite>
      break;
  80057c:	00004f06 	br	8006bc <alt_ucosii_simple_error_handler+0x480>
    case OS_TIMEOUT:
      fprintf(stderr, "Resource not received in specified time\n");
  800580:	008020b4 	movhi	r2,130
  800584:	10bb9f04 	addi	r2,r2,-4484
  800588:	10800017 	ldw	r2,0(r2)
  80058c:	11c00317 	ldw	r7,12(r2)
  800590:	010020b4 	movhi	r4,130
  800594:	2131d804 	addi	r4,r4,-14496
  800598:	01400044 	movi	r5,1
  80059c:	01800a04 	movi	r6,40
  8005a0:	080702c0 	call	80702c <fwrite>
      break;
  8005a4:	00004506 	br	8006bc <alt_ucosii_simple_error_handler+0x480>
    case OS_ERR_PEND_ISR:
      fprintf(stderr, "Attempting to pending for a resource in an ISR\n");
  8005a8:	008020b4 	movhi	r2,130
  8005ac:	10bb9f04 	addi	r2,r2,-4484
  8005b0:	10800017 	ldw	r2,0(r2)
  8005b4:	11c00317 	ldw	r7,12(r2)
  8005b8:	010020b4 	movhi	r4,130
  8005bc:	2131e304 	addi	r4,r4,-14452
  8005c0:	01400044 	movi	r5,1
  8005c4:	01800bc4 	movi	r6,47
  8005c8:	080702c0 	call	80702c <fwrite>
      break;
  8005cc:	00003b06 	br	8006bc <alt_ucosii_simple_error_handler+0x480>
    case OS_TASK_DEL_IDLE:
      fprintf(stderr, "Attempted to delete the IDLE task\n");
  8005d0:	008020b4 	movhi	r2,130
  8005d4:	10bb9f04 	addi	r2,r2,-4484
  8005d8:	10800017 	ldw	r2,0(r2)
  8005dc:	11c00317 	ldw	r7,12(r2)
  8005e0:	010020b4 	movhi	r4,130
  8005e4:	2131ef04 	addi	r4,r4,-14404
  8005e8:	01400044 	movi	r5,1
  8005ec:	01800884 	movi	r6,34
  8005f0:	080702c0 	call	80702c <fwrite>
      break;
  8005f4:	00003106 	br	8006bc <alt_ucosii_simple_error_handler+0x480>
    case OS_TASK_DEL_ERR:
      fprintf(stderr, "Attempted to delete a task that does not exist\n");
  8005f8:	008020b4 	movhi	r2,130
  8005fc:	10bb9f04 	addi	r2,r2,-4484
  800600:	10800017 	ldw	r2,0(r2)
  800604:	11c00317 	ldw	r7,12(r2)
  800608:	010020b4 	movhi	r4,130
  80060c:	2131f804 	addi	r4,r4,-14368
  800610:	01400044 	movi	r5,1
  800614:	01800bc4 	movi	r6,47
  800618:	080702c0 	call	80702c <fwrite>
      break;
  80061c:	00002706 	br	8006bc <alt_ucosii_simple_error_handler+0x480>
    case OS_TASK_DEL_ISR:
      fprintf(stderr, "Attempted to delete a task from an ISR\n");
  800620:	008020b4 	movhi	r2,130
  800624:	10bb9f04 	addi	r2,r2,-4484
  800628:	10800017 	ldw	r2,0(r2)
  80062c:	11c00317 	ldw	r7,12(r2)
  800630:	010020b4 	movhi	r4,130
  800634:	21320404 	addi	r4,r4,-14320
  800638:	01400044 	movi	r5,1
  80063c:	018009c4 	movi	r6,39
  800640:	080702c0 	call	80702c <fwrite>
      break;
  800644:	00001d06 	br	8006bc <alt_ucosii_simple_error_handler+0x480>
    case OS_Q_FULL:
      fprintf(stderr, "Attempted to post to a full message queue\n");
  800648:	008020b4 	movhi	r2,130
  80064c:	10bb9f04 	addi	r2,r2,-4484
  800650:	10800017 	ldw	r2,0(r2)
  800654:	11c00317 	ldw	r7,12(r2)
  800658:	010020b4 	movhi	r4,130
  80065c:	21320e04 	addi	r4,r4,-14280
  800660:	01400044 	movi	r5,1
  800664:	01800a84 	movi	r6,42
  800668:	080702c0 	call	80702c <fwrite>
      break;
  80066c:	00001306 	br	8006bc <alt_ucosii_simple_error_handler+0x480>
    case OS_ERR_NOT_MUTEX_OWNER:
      fprintf(stderr, "Attempted to post a mutex that is not owned by the task\n");
  800670:	008020b4 	movhi	r2,130
  800674:	10bb9f04 	addi	r2,r2,-4484
  800678:	10800017 	ldw	r2,0(r2)
  80067c:	11c00317 	ldw	r7,12(r2)
  800680:	010020b4 	movhi	r4,130
  800684:	21321904 	addi	r4,r4,-14236
  800688:	01400044 	movi	r5,1
  80068c:	01800e04 	movi	r6,56
  800690:	080702c0 	call	80702c <fwrite>
      break;
  800694:	00000906 	br	8006bc <alt_ucosii_simple_error_handler+0x480>
    default:
      fprintf(stderr, "Unknown Error\n");
  800698:	008020b4 	movhi	r2,130
  80069c:	10bb9f04 	addi	r2,r2,-4484
  8006a0:	10800017 	ldw	r2,0(r2)
  8006a4:	11c00317 	ldw	r7,12(r2)
  8006a8:	010020b4 	movhi	r4,130
  8006ac:	21322804 	addi	r4,r4,-14176
  8006b0:	01400044 	movi	r5,1
  8006b4:	01800384 	movi	r6,14
  8006b8:	080702c0 	call	80702c <fwrite>
      break;
  }
  fprintf(stderr, "Program is terminating.\n");
  8006bc:	008020b4 	movhi	r2,130
  8006c0:	10bb9f04 	addi	r2,r2,-4484
  8006c4:	10800017 	ldw	r2,0(r2)
  8006c8:	11c00317 	ldw	r7,12(r2)
  8006cc:	010020b4 	movhi	r4,130
  8006d0:	21322c04 	addi	r4,r4,-14160
  8006d4:	01400044 	movi	r5,1
  8006d8:	01800604 	movi	r6,24
  8006dc:	080702c0 	call	80702c <fwrite>
  exit(0);
  8006e0:	0009883a 	mov	r4,zero
  8006e4:	0805d400 	call	805d40 <exit>

008006e8 <checksum>:
void parse_GGA(char pkt[83], struct packet *packet_GGA);						/*Function to parse GGA packet into data structure     	*/
char GMT_to_MST(int *time, char *pkt_time);										/*Function to convert to Mt Standard time from GMT		*/
void lat_to_deg(char *pkt_lat, int *lat);										/*Function to convert packet latitude to integers		*/
void long_to_deg(char *pkt_lat, int *lon);										/*Function to convert packet longitude to integers		*/

int checksum(char test, char cs, char pkt[83]){
  8006e8:	defff604 	addi	sp,sp,-40
  8006ec:	dfc00915 	stw	ra,36(sp)
  8006f0:	df000815 	stw	fp,32(sp)
  8006f4:	df000804 	addi	fp,sp,32
  8006f8:	e1bffe15 	stw	r6,-8(fp)
  8006fc:	e13ffc05 	stb	r4,-16(fp)
  800700:	e17ffd05 	stb	r5,-12(fp)
  int j,k,temp,check;

  j = 0;																		/*Sets checksum flag to 0                              	*/
  800704:	e03ffb15 	stw	zero,-20(fp)
  k = 0;
  800708:	e03ffa15 	stw	zero,-24(fp)

  if(test == 'G'){
  80070c:	e0bffc07 	ldb	r2,-16(fp)
  800710:	108011d8 	cmpnei	r2,r2,71
  800714:	1000c31e 	bne	r2,zero,800a24 <checksum+0x33c>
	  cs  		= test;
  800718:	e0bffc03 	ldbu	r2,-16(fp)
  80071c:	e0bffd05 	stb	r2,-12(fp)
	  pkt[j] 	= test;
  800720:	e0bffb17 	ldw	r2,-20(fp)
  800724:	1007883a 	mov	r3,r2
  800728:	e0bffe17 	ldw	r2,-8(fp)
  80072c:	1887883a 	add	r3,r3,r2
  800730:	e0bffc03 	ldbu	r2,-16(fp)
  800734:	18800005 	stb	r2,0(r3)
	  j++;
  800738:	e0bffb17 	ldw	r2,-20(fp)
  80073c:	10800044 	addi	r2,r2,1
  800740:	e0bffb15 	stw	r2,-20(fp)
	  test		= getchar();
  800744:	008020b4 	movhi	r2,130
  800748:	10bb9f04 	addi	r2,r2,-4484
  80074c:	10800017 	ldw	r2,0(r2)
  800750:	11000117 	ldw	r4,4(r2)
  800754:	080706c0 	call	80706c <getc>
  800758:	e0bffc05 	stb	r2,-16(fp)
	  if(test == 'P'){
  80075c:	e0bffc07 	ldb	r2,-16(fp)
  800760:	10801418 	cmpnei	r2,r2,80
  800764:	1000af1e 	bne	r2,zero,800a24 <checksum+0x33c>
		  cs = check_upd(test,cs);
  800768:	e13ffc07 	ldb	r4,-16(fp)
  80076c:	e17ffd07 	ldb	r5,-12(fp)
  800770:	08014180 	call	801418 <check_upd>
  800774:	e0bffd05 	stb	r2,-12(fp)
		  pkt[j] = test;
  800778:	e0bffb17 	ldw	r2,-20(fp)
  80077c:	1007883a 	mov	r3,r2
  800780:	e0bffe17 	ldw	r2,-8(fp)
  800784:	1887883a 	add	r3,r3,r2
  800788:	e0bffc03 	ldbu	r2,-16(fp)
  80078c:	18800005 	stb	r2,0(r3)
		  j++;
  800790:	e0bffb17 	ldw	r2,-20(fp)
  800794:	10800044 	addi	r2,r2,1
  800798:	e0bffb15 	stw	r2,-20(fp)
		  test = getchar();
  80079c:	008020b4 	movhi	r2,130
  8007a0:	10bb9f04 	addi	r2,r2,-4484
  8007a4:	10800017 	ldw	r2,0(r2)
  8007a8:	11000117 	ldw	r4,4(r2)
  8007ac:	080706c0 	call	80706c <getc>
  8007b0:	e0bffc05 	stb	r2,-16(fp)
		  if(test == 'G'){
  8007b4:	e0bffc07 	ldb	r2,-16(fp)
  8007b8:	108011d8 	cmpnei	r2,r2,71
  8007bc:	1000991e 	bne	r2,zero,800a24 <checksum+0x33c>
			  cs = check_upd(test,cs);
  8007c0:	e13ffc07 	ldb	r4,-16(fp)
  8007c4:	e17ffd07 	ldb	r5,-12(fp)
  8007c8:	08014180 	call	801418 <check_upd>
  8007cc:	e0bffd05 	stb	r2,-12(fp)
			  pkt[j] 	= test;
  8007d0:	e0bffb17 	ldw	r2,-20(fp)
  8007d4:	1007883a 	mov	r3,r2
  8007d8:	e0bffe17 	ldw	r2,-8(fp)
  8007dc:	1887883a 	add	r3,r3,r2
  8007e0:	e0bffc03 	ldbu	r2,-16(fp)
  8007e4:	18800005 	stb	r2,0(r3)
			  j++;
  8007e8:	e0bffb17 	ldw	r2,-20(fp)
  8007ec:	10800044 	addi	r2,r2,1
  8007f0:	e0bffb15 	stw	r2,-20(fp)
			  test 	= getchar();
  8007f4:	008020b4 	movhi	r2,130
  8007f8:	10bb9f04 	addi	r2,r2,-4484
  8007fc:	10800017 	ldw	r2,0(r2)
  800800:	11000117 	ldw	r4,4(r2)
  800804:	080706c0 	call	80706c <getc>
  800808:	e0bffc05 	stb	r2,-16(fp)
			  if(test == 'G'){
  80080c:	e0bffc07 	ldb	r2,-16(fp)
  800810:	108011d8 	cmpnei	r2,r2,71
  800814:	1000831e 	bne	r2,zero,800a24 <checksum+0x33c>
				  cs   	= check_upd(test,cs);
  800818:	e13ffc07 	ldb	r4,-16(fp)
  80081c:	e17ffd07 	ldb	r5,-12(fp)
  800820:	08014180 	call	801418 <check_upd>
  800824:	e0bffd05 	stb	r2,-12(fp)
				  pkt[j] 	= test;
  800828:	e0bffb17 	ldw	r2,-20(fp)
  80082c:	1007883a 	mov	r3,r2
  800830:	e0bffe17 	ldw	r2,-8(fp)
  800834:	1887883a 	add	r3,r3,r2
  800838:	e0bffc03 	ldbu	r2,-16(fp)
  80083c:	18800005 	stb	r2,0(r3)
				  j++;
  800840:	e0bffb17 	ldw	r2,-20(fp)
  800844:	10800044 	addi	r2,r2,1
  800848:	e0bffb15 	stw	r2,-20(fp)
				  test 	= getchar();
  80084c:	008020b4 	movhi	r2,130
  800850:	10bb9f04 	addi	r2,r2,-4484
  800854:	10800017 	ldw	r2,0(r2)
  800858:	11000117 	ldw	r4,4(r2)
  80085c:	080706c0 	call	80706c <getc>
  800860:	e0bffc05 	stb	r2,-16(fp)
				  if(test == 'A'){								/*If it makes it this far, GPGGA has been found       */
  800864:	e0bffc07 	ldb	r2,-16(fp)
  800868:	10801058 	cmpnei	r2,r2,65
  80086c:	10006d1e 	bne	r2,zero,800a24 <checksum+0x33c>
					  cs = check_upd(test,cs);
  800870:	e13ffc07 	ldb	r4,-16(fp)
  800874:	e17ffd07 	ldb	r5,-12(fp)
  800878:	08014180 	call	801418 <check_upd>
  80087c:	e0bffd05 	stb	r2,-12(fp)
					  pkt[j] 	= test;
  800880:	e0bffb17 	ldw	r2,-20(fp)
  800884:	1007883a 	mov	r3,r2
  800888:	e0bffe17 	ldw	r2,-8(fp)
  80088c:	1887883a 	add	r3,r3,r2
  800890:	e0bffc03 	ldbu	r2,-16(fp)
  800894:	18800005 	stb	r2,0(r3)
					  j++;
  800898:	e0bffb17 	ldw	r2,-20(fp)
  80089c:	10800044 	addi	r2,r2,1
  8008a0:	e0bffb15 	stw	r2,-20(fp)
					  test 	= getchar();
  8008a4:	008020b4 	movhi	r2,130
  8008a8:	10bb9f04 	addi	r2,r2,-4484
  8008ac:	10800017 	ldw	r2,0(r2)
  8008b0:	11000117 	ldw	r4,4(r2)
  8008b4:	080706c0 	call	80706c <getc>
  8008b8:	e0bffc05 	stb	r2,-16(fp)
					  while(test != '$'){						/*Loop reads in new character from serial and 		  */
  8008bc:	00000f06 	br	8008fc <checksum+0x214>
						  pkt[j] = test;						/*populates an array of characters with the serial 	  */
  8008c0:	e0bffb17 	ldw	r2,-20(fp)
  8008c4:	1007883a 	mov	r3,r2
  8008c8:	e0bffe17 	ldw	r2,-8(fp)
  8008cc:	1887883a 	add	r3,r3,r2
  8008d0:	e0bffc03 	ldbu	r2,-16(fp)
  8008d4:	18800005 	stb	r2,0(r3)
						  j++;									/*characters										  */
  8008d8:	e0bffb17 	ldw	r2,-20(fp)
  8008dc:	10800044 	addi	r2,r2,1
  8008e0:	e0bffb15 	stw	r2,-20(fp)
						  test = getchar();
  8008e4:	008020b4 	movhi	r2,130
  8008e8:	10bb9f04 	addi	r2,r2,-4484
  8008ec:	10800017 	ldw	r2,0(r2)
  8008f0:	11000117 	ldw	r4,4(r2)
  8008f4:	080706c0 	call	80706c <getc>
  8008f8:	e0bffc05 	stb	r2,-16(fp)
				  if(test == 'A'){								/*If it makes it this far, GPGGA has been found       */
					  cs = check_upd(test,cs);
					  pkt[j] 	= test;
					  j++;
					  test 	= getchar();
					  while(test != '$'){						/*Loop reads in new character from serial and 		  */
  8008fc:	e0bffc07 	ldb	r2,-16(fp)
  800900:	10800918 	cmpnei	r2,r2,36
  800904:	103fee1e 	bne	r2,zero,8008c0 <checksum+0x1d8>
						  pkt[j] = test;						/*populates an array of characters with the serial 	  */
						  j++;									/*characters										  */
						  test = getchar();
					  };

					  for(j=0; (pkt[j]!= '*'); j++){			/*Calculates the checksum by looping through array	  */
  800908:	e03ffb15 	stw	zero,-20(fp)
  80090c:	00001806 	br	800970 <checksum+0x288>
						  if(j == 0){							/*Xors each successive ascii character with the stored*/
  800910:	e0bffb17 	ldw	r2,-20(fp)
  800914:	1004c03a 	cmpne	r2,r2,zero
  800918:	1000071e 	bne	r2,zero,800938 <checksum+0x250>
							  cs = pkt[j];						/*value of cs with the check_upd f'n				  */
  80091c:	e0bffb17 	ldw	r2,-20(fp)
  800920:	1007883a 	mov	r3,r2
  800924:	e0bffe17 	ldw	r2,-8(fp)
  800928:	1885883a 	add	r2,r3,r2
  80092c:	10800003 	ldbu	r2,0(r2)
  800930:	e0bffd05 	stb	r2,-12(fp)
  800934:	00000b06 	br	800964 <checksum+0x27c>
						  } else {
							  cs = check_upd(pkt[j], cs);
  800938:	e0bffb17 	ldw	r2,-20(fp)
  80093c:	1007883a 	mov	r3,r2
  800940:	e0bffe17 	ldw	r2,-8(fp)
  800944:	1885883a 	add	r2,r3,r2
  800948:	10800003 	ldbu	r2,0(r2)
  80094c:	11003fcc 	andi	r4,r2,255
  800950:	2100201c 	xori	r4,r4,128
  800954:	213fe004 	addi	r4,r4,-128
  800958:	e17ffd07 	ldb	r5,-12(fp)
  80095c:	08014180 	call	801418 <check_upd>
  800960:	e0bffd05 	stb	r2,-12(fp)
						  pkt[j] = test;						/*populates an array of characters with the serial 	  */
						  j++;									/*characters										  */
						  test = getchar();
					  };

					  for(j=0; (pkt[j]!= '*'); j++){			/*Calculates the checksum by looping through array	  */
  800964:	e0bffb17 	ldw	r2,-20(fp)
  800968:	10800044 	addi	r2,r2,1
  80096c:	e0bffb15 	stw	r2,-20(fp)
  800970:	e0bffb17 	ldw	r2,-20(fp)
  800974:	1007883a 	mov	r3,r2
  800978:	e0bffe17 	ldw	r2,-8(fp)
  80097c:	1885883a 	add	r2,r3,r2
  800980:	10800003 	ldbu	r2,0(r2)
  800984:	10803fcc 	andi	r2,r2,255
  800988:	1080201c 	xori	r2,r2,128
  80098c:	10bfe004 	addi	r2,r2,-128
  800990:	10800a98 	cmpnei	r2,r2,42
  800994:	103fde1e 	bne	r2,zero,800910 <checksum+0x228>
						  } else {
							  cs = check_upd(pkt[j], cs);
						  }
					  };

					  temp  = (atoh(pkt[(j+1)]));
  800998:	e0fffb17 	ldw	r3,-20(fp)
  80099c:	e0bffe17 	ldw	r2,-8(fp)
  8009a0:	1885883a 	add	r2,r3,r2
  8009a4:	10800044 	addi	r2,r2,1
  8009a8:	10800003 	ldbu	r2,0(r2)
  8009ac:	11003fcc 	andi	r4,r2,255
  8009b0:	2100201c 	xori	r4,r4,128
  8009b4:	213fe004 	addi	r4,r4,-128
  8009b8:	08014500 	call	801450 <atoh>
  8009bc:	e0bff915 	stw	r2,-28(fp)
					  temp  = temp << 4;
  8009c0:	e0bff917 	ldw	r2,-28(fp)
  8009c4:	1004913a 	slli	r2,r2,4
  8009c8:	e0bff915 	stw	r2,-28(fp)
					  check = (atoh(pkt[(j+2)]) + temp);
  8009cc:	e0fffb17 	ldw	r3,-20(fp)
  8009d0:	e0bffe17 	ldw	r2,-8(fp)
  8009d4:	1885883a 	add	r2,r3,r2
  8009d8:	10800084 	addi	r2,r2,2
  8009dc:	10800003 	ldbu	r2,0(r2)
  8009e0:	11003fcc 	andi	r4,r2,255
  8009e4:	2100201c 	xori	r4,r4,128
  8009e8:	213fe004 	addi	r4,r4,-128
  8009ec:	08014500 	call	801450 <atoh>
  8009f0:	1007883a 	mov	r3,r2
  8009f4:	e0bff917 	ldw	r2,-28(fp)
  8009f8:	1885883a 	add	r2,r3,r2
  8009fc:	e0bff815 	stw	r2,-32(fp)

					  if (cs == check) {
  800a00:	e0fffd07 	ldb	r3,-12(fp)
  800a04:	e0bff817 	ldw	r2,-32(fp)
  800a08:	1880031e 	bne	r3,r2,800a18 <checksum+0x330>
						  return(1);
  800a0c:	00800044 	movi	r2,1
  800a10:	e0bfff15 	stw	r2,-4(fp)
  800a14:	00000406 	br	800a28 <checksum+0x340>
					  } else {
						  printf("GPS not available.\n");
  800a18:	010020b4 	movhi	r4,130
  800a1c:	21323304 	addi	r4,r4,-14132
  800a20:	0807cb40 	call	807cb4 <puts>
				  };
			  };
		  };
	  };
  };
  return(0);
  800a24:	e03fff15 	stw	zero,-4(fp)
  800a28:	e0bfff17 	ldw	r2,-4(fp)
};
  800a2c:	e037883a 	mov	sp,fp
  800a30:	dfc00117 	ldw	ra,4(sp)
  800a34:	df000017 	ldw	fp,0(sp)
  800a38:	dec00204 	addi	sp,sp,8
  800a3c:	f800283a 	ret

00800a40 <parse_GGA>:

void parse_GGA(char pkt[83], struct packet *packet_GGA){
  800a40:	defffa04 	addi	sp,sp,-24
  800a44:	dfc00515 	stw	ra,20(sp)
  800a48:	df000415 	stw	fp,16(sp)
  800a4c:	df000404 	addi	fp,sp,16
  800a50:	e13ffe15 	stw	r4,-8(fp)
  800a54:	e17fff15 	stw	r5,-4(fp)
	int j,k;

	j = 0;
  800a58:	e03ffd15 	stw	zero,-12(fp)
	k = 0;
  800a5c:	e03ffc15 	stw	zero,-16(fp)

	/****** Parses Identifier String ******/
	while(pkt[j] != ','){
  800a60:	00000f06 	br	800aa0 <parse_GGA+0x60>
		packet_GGA->ident[k] = pkt[j];
  800a64:	e13ffc17 	ldw	r4,-16(fp)
  800a68:	e0bffd17 	ldw	r2,-12(fp)
  800a6c:	1007883a 	mov	r3,r2
  800a70:	e0bffe17 	ldw	r2,-8(fp)
  800a74:	1885883a 	add	r2,r3,r2
  800a78:	10c00003 	ldbu	r3,0(r2)
  800a7c:	e0bfff17 	ldw	r2,-4(fp)
  800a80:	1105883a 	add	r2,r2,r4
  800a84:	10c00005 	stb	r3,0(r2)
		j++;
  800a88:	e0bffd17 	ldw	r2,-12(fp)
  800a8c:	10800044 	addi	r2,r2,1
  800a90:	e0bffd15 	stw	r2,-12(fp)
		k++;
  800a94:	e0bffc17 	ldw	r2,-16(fp)
  800a98:	10800044 	addi	r2,r2,1
  800a9c:	e0bffc15 	stw	r2,-16(fp)

	j = 0;
	k = 0;

	/****** Parses Identifier String ******/
	while(pkt[j] != ','){
  800aa0:	e0bffd17 	ldw	r2,-12(fp)
  800aa4:	1007883a 	mov	r3,r2
  800aa8:	e0bffe17 	ldw	r2,-8(fp)
  800aac:	1885883a 	add	r2,r3,r2
  800ab0:	10800003 	ldbu	r2,0(r2)
  800ab4:	10803fcc 	andi	r2,r2,255
  800ab8:	1080201c 	xori	r2,r2,128
  800abc:	10bfe004 	addi	r2,r2,-128
  800ac0:	10800b18 	cmpnei	r2,r2,44
  800ac4:	103fe71e 	bne	r2,zero,800a64 <parse_GGA+0x24>
		packet_GGA->ident[k] = pkt[j];
		j++;
		k++;
	}
	j++;
  800ac8:	e0bffd17 	ldw	r2,-12(fp)
  800acc:	10800044 	addi	r2,r2,1
  800ad0:	e0bffd15 	stw	r2,-12(fp)
	packet_GGA->ident[k] = '\0';
  800ad4:	e0fffc17 	ldw	r3,-16(fp)
  800ad8:	e0bfff17 	ldw	r2,-4(fp)
  800adc:	10c5883a 	add	r2,r2,r3
  800ae0:	10000005 	stb	zero,0(r2)

	printf("\n");
  800ae4:	01000284 	movi	r4,10
  800ae8:	0807bf00 	call	807bf0 <putchar>
	printf("Identifier                       = %s\n", packet_GGA->ident);
  800aec:	e17fff17 	ldw	r5,-4(fp)
  800af0:	010020b4 	movhi	r4,130
  800af4:	21323804 	addi	r4,r4,-14112
  800af8:	0807b780 	call	807b78 <printf>

	k = 0;
  800afc:	e03ffc15 	stw	zero,-16(fp)

	/****** Parses Time String ******/
	while(pkt[j] != ','){
  800b00:	00001006 	br	800b44 <parse_GGA+0x104>
		packet_GGA->time[k] = pkt[j];
  800b04:	e13ffc17 	ldw	r4,-16(fp)
  800b08:	e0bffd17 	ldw	r2,-12(fp)
  800b0c:	1007883a 	mov	r3,r2
  800b10:	e0bffe17 	ldw	r2,-8(fp)
  800b14:	1885883a 	add	r2,r3,r2
  800b18:	10c00003 	ldbu	r3,0(r2)
  800b1c:	e0bfff17 	ldw	r2,-4(fp)
  800b20:	1105883a 	add	r2,r2,r4
  800b24:	10800184 	addi	r2,r2,6
  800b28:	10c00005 	stb	r3,0(r2)
		j++;
  800b2c:	e0bffd17 	ldw	r2,-12(fp)
  800b30:	10800044 	addi	r2,r2,1
  800b34:	e0bffd15 	stw	r2,-12(fp)
		k++;
  800b38:	e0bffc17 	ldw	r2,-16(fp)
  800b3c:	10800044 	addi	r2,r2,1
  800b40:	e0bffc15 	stw	r2,-16(fp)
	printf("Identifier                       = %s\n", packet_GGA->ident);

	k = 0;

	/****** Parses Time String ******/
	while(pkt[j] != ','){
  800b44:	e0bffd17 	ldw	r2,-12(fp)
  800b48:	1007883a 	mov	r3,r2
  800b4c:	e0bffe17 	ldw	r2,-8(fp)
  800b50:	1885883a 	add	r2,r3,r2
  800b54:	10800003 	ldbu	r2,0(r2)
  800b58:	10803fcc 	andi	r2,r2,255
  800b5c:	1080201c 	xori	r2,r2,128
  800b60:	10bfe004 	addi	r2,r2,-128
  800b64:	10800b18 	cmpnei	r2,r2,44
  800b68:	103fe61e 	bne	r2,zero,800b04 <parse_GGA+0xc4>
		packet_GGA->time[k] = pkt[j];
		j++;
		k++;
	}
	j++;
  800b6c:	e0bffd17 	ldw	r2,-12(fp)
  800b70:	10800044 	addi	r2,r2,1
  800b74:	e0bffd15 	stw	r2,-12(fp)
	//k++;
	packet_GGA->time[k] = '\0';
  800b78:	e0fffc17 	ldw	r3,-16(fp)
  800b7c:	e0bfff17 	ldw	r2,-4(fp)
  800b80:	10c5883a 	add	r2,r2,r3
  800b84:	10800184 	addi	r2,r2,6
  800b88:	10000005 	stb	zero,0(r2)

	printf("Time                             = %s\n", packet_GGA->time);
  800b8c:	e0bfff17 	ldw	r2,-4(fp)
  800b90:	11400184 	addi	r5,r2,6
  800b94:	010020b4 	movhi	r4,130
  800b98:	21324204 	addi	r4,r4,-14072
  800b9c:	0807b780 	call	807b78 <printf>

	k = 0;
  800ba0:	e03ffc15 	stw	zero,-16(fp)

	/****** Parses Latitude String ******/
	while(pkt[j] != ','){
  800ba4:	00001006 	br	800be8 <parse_GGA+0x1a8>
		packet_GGA->latitude[k] = pkt[j];
  800ba8:	e13ffc17 	ldw	r4,-16(fp)
  800bac:	e0bffd17 	ldw	r2,-12(fp)
  800bb0:	1007883a 	mov	r3,r2
  800bb4:	e0bffe17 	ldw	r2,-8(fp)
  800bb8:	1885883a 	add	r2,r3,r2
  800bbc:	10c00003 	ldbu	r3,0(r2)
  800bc0:	e0bfff17 	ldw	r2,-4(fp)
  800bc4:	2085883a 	add	r2,r4,r2
  800bc8:	10800404 	addi	r2,r2,16
  800bcc:	10c00005 	stb	r3,0(r2)
		j++;
  800bd0:	e0bffd17 	ldw	r2,-12(fp)
  800bd4:	10800044 	addi	r2,r2,1
  800bd8:	e0bffd15 	stw	r2,-12(fp)
		k++;
  800bdc:	e0bffc17 	ldw	r2,-16(fp)
  800be0:	10800044 	addi	r2,r2,1
  800be4:	e0bffc15 	stw	r2,-16(fp)
	printf("Time                             = %s\n", packet_GGA->time);

	k = 0;

	/****** Parses Latitude String ******/
	while(pkt[j] != ','){
  800be8:	e0bffd17 	ldw	r2,-12(fp)
  800bec:	1007883a 	mov	r3,r2
  800bf0:	e0bffe17 	ldw	r2,-8(fp)
  800bf4:	1885883a 	add	r2,r3,r2
  800bf8:	10800003 	ldbu	r2,0(r2)
  800bfc:	10803fcc 	andi	r2,r2,255
  800c00:	1080201c 	xori	r2,r2,128
  800c04:	10bfe004 	addi	r2,r2,-128
  800c08:	10800b18 	cmpnei	r2,r2,44
  800c0c:	103fe61e 	bne	r2,zero,800ba8 <parse_GGA+0x168>
		packet_GGA->latitude[k] = pkt[j];
		j++;
		k++;
	}
	j++;
  800c10:	e0bffd17 	ldw	r2,-12(fp)
  800c14:	10800044 	addi	r2,r2,1
  800c18:	e0bffd15 	stw	r2,-12(fp)
	packet_GGA->latitude[k] = '\0';
  800c1c:	e0fffc17 	ldw	r3,-16(fp)
  800c20:	e0bfff17 	ldw	r2,-4(fp)
  800c24:	1885883a 	add	r2,r3,r2
  800c28:	10800404 	addi	r2,r2,16
  800c2c:	10000005 	stb	zero,0(r2)

	printf("Latitude                         = %s", packet_GGA->latitude);
  800c30:	e0bfff17 	ldw	r2,-4(fp)
  800c34:	11400404 	addi	r5,r2,16
  800c38:	010020b4 	movhi	r4,130
  800c3c:	21324c04 	addi	r4,r4,-14032
  800c40:	0807b780 	call	807b78 <printf>

	k = 0;
  800c44:	e03ffc15 	stw	zero,-16(fp)

	/****** Parses North/South String ******/
	while(pkt[j] != ','){
  800c48:	00001006 	br	800c8c <parse_GGA+0x24c>
		packet_GGA->ns[k] = pkt[j];
  800c4c:	e13ffc17 	ldw	r4,-16(fp)
  800c50:	e0bffd17 	ldw	r2,-12(fp)
  800c54:	1007883a 	mov	r3,r2
  800c58:	e0bffe17 	ldw	r2,-8(fp)
  800c5c:	1885883a 	add	r2,r3,r2
  800c60:	10c00003 	ldbu	r3,0(r2)
  800c64:	e0bfff17 	ldw	r2,-4(fp)
  800c68:	2085883a 	add	r2,r4,r2
  800c6c:	10800704 	addi	r2,r2,28
  800c70:	10c00005 	stb	r3,0(r2)
		j++;
  800c74:	e0bffd17 	ldw	r2,-12(fp)
  800c78:	10800044 	addi	r2,r2,1
  800c7c:	e0bffd15 	stw	r2,-12(fp)
		k++;
  800c80:	e0bffc17 	ldw	r2,-16(fp)
  800c84:	10800044 	addi	r2,r2,1
  800c88:	e0bffc15 	stw	r2,-16(fp)
	printf("Latitude                         = %s", packet_GGA->latitude);

	k = 0;

	/****** Parses North/South String ******/
	while(pkt[j] != ','){
  800c8c:	e0bffd17 	ldw	r2,-12(fp)
  800c90:	1007883a 	mov	r3,r2
  800c94:	e0bffe17 	ldw	r2,-8(fp)
  800c98:	1885883a 	add	r2,r3,r2
  800c9c:	10800003 	ldbu	r2,0(r2)
  800ca0:	10803fcc 	andi	r2,r2,255
  800ca4:	1080201c 	xori	r2,r2,128
  800ca8:	10bfe004 	addi	r2,r2,-128
  800cac:	10800b18 	cmpnei	r2,r2,44
  800cb0:	103fe61e 	bne	r2,zero,800c4c <parse_GGA+0x20c>
		packet_GGA->ns[k] = pkt[j];
		j++;
		k++;
	}
	j++;
  800cb4:	e0bffd17 	ldw	r2,-12(fp)
  800cb8:	10800044 	addi	r2,r2,1
  800cbc:	e0bffd15 	stw	r2,-12(fp)
	k++;
  800cc0:	e0bffc17 	ldw	r2,-16(fp)
  800cc4:	10800044 	addi	r2,r2,1
  800cc8:	e0bffc15 	stw	r2,-16(fp)
	packet_GGA->ns[k] = '\0';
  800ccc:	e0fffc17 	ldw	r3,-16(fp)
  800cd0:	e0bfff17 	ldw	r2,-4(fp)
  800cd4:	1885883a 	add	r2,r3,r2
  800cd8:	10800704 	addi	r2,r2,28
  800cdc:	10000005 	stb	zero,0(r2)

	printf(" %c\n", packet_GGA->ns[0]);
  800ce0:	e0bfff17 	ldw	r2,-4(fp)
  800ce4:	10800703 	ldbu	r2,28(r2)
  800ce8:	11403fcc 	andi	r5,r2,255
  800cec:	2940201c 	xori	r5,r5,128
  800cf0:	297fe004 	addi	r5,r5,-128
  800cf4:	010020b4 	movhi	r4,130
  800cf8:	21325604 	addi	r4,r4,-13992
  800cfc:	0807b780 	call	807b78 <printf>

	k = 0;
  800d00:	e03ffc15 	stw	zero,-16(fp)

	/****** Parses Longitude String ******/
	while(pkt[j] != ','){
  800d04:	00001006 	br	800d48 <parse_GGA+0x308>
		packet_GGA->longitude[k] = pkt[j];
  800d08:	e13ffc17 	ldw	r4,-16(fp)
  800d0c:	e0bffd17 	ldw	r2,-12(fp)
  800d10:	1007883a 	mov	r3,r2
  800d14:	e0bffe17 	ldw	r2,-8(fp)
  800d18:	1885883a 	add	r2,r3,r2
  800d1c:	10c00003 	ldbu	r3,0(r2)
  800d20:	e0bfff17 	ldw	r2,-4(fp)
  800d24:	1105883a 	add	r2,r2,r4
  800d28:	10800784 	addi	r2,r2,30
  800d2c:	10c00005 	stb	r3,0(r2)
		j++;
  800d30:	e0bffd17 	ldw	r2,-12(fp)
  800d34:	10800044 	addi	r2,r2,1
  800d38:	e0bffd15 	stw	r2,-12(fp)
		k++;
  800d3c:	e0bffc17 	ldw	r2,-16(fp)
  800d40:	10800044 	addi	r2,r2,1
  800d44:	e0bffc15 	stw	r2,-16(fp)
	printf(" %c\n", packet_GGA->ns[0]);

	k = 0;

	/****** Parses Longitude String ******/
	while(pkt[j] != ','){
  800d48:	e0bffd17 	ldw	r2,-12(fp)
  800d4c:	1007883a 	mov	r3,r2
  800d50:	e0bffe17 	ldw	r2,-8(fp)
  800d54:	1885883a 	add	r2,r3,r2
  800d58:	10800003 	ldbu	r2,0(r2)
  800d5c:	10803fcc 	andi	r2,r2,255
  800d60:	1080201c 	xori	r2,r2,128
  800d64:	10bfe004 	addi	r2,r2,-128
  800d68:	10800b18 	cmpnei	r2,r2,44
  800d6c:	103fe61e 	bne	r2,zero,800d08 <parse_GGA+0x2c8>
		packet_GGA->longitude[k] = pkt[j];
		j++;
		k++;
	}
	j++;
  800d70:	e0bffd17 	ldw	r2,-12(fp)
  800d74:	10800044 	addi	r2,r2,1
  800d78:	e0bffd15 	stw	r2,-12(fp)
	/*k++;*/
	packet_GGA->longitude[k] = '\0';
  800d7c:	e0fffc17 	ldw	r3,-16(fp)
  800d80:	e0bfff17 	ldw	r2,-4(fp)
  800d84:	10c5883a 	add	r2,r2,r3
  800d88:	10800784 	addi	r2,r2,30
  800d8c:	10000005 	stb	zero,0(r2)

	printf("Longitude                        = %s", packet_GGA->longitude);
  800d90:	e0bfff17 	ldw	r2,-4(fp)
  800d94:	11400784 	addi	r5,r2,30
  800d98:	010020b4 	movhi	r4,130
  800d9c:	21325804 	addi	r4,r4,-13984
  800da0:	0807b780 	call	807b78 <printf>

	k = 0;
  800da4:	e03ffc15 	stw	zero,-16(fp)

	/****** Parses East/West String ******/
	while(pkt[j] != ','){
  800da8:	00001006 	br	800dec <parse_GGA+0x3ac>
		packet_GGA->ew[k] = pkt[j];
  800dac:	e13ffc17 	ldw	r4,-16(fp)
  800db0:	e0bffd17 	ldw	r2,-12(fp)
  800db4:	1007883a 	mov	r3,r2
  800db8:	e0bffe17 	ldw	r2,-8(fp)
  800dbc:	1885883a 	add	r2,r3,r2
  800dc0:	10c00003 	ldbu	r3,0(r2)
  800dc4:	e0bfff17 	ldw	r2,-4(fp)
  800dc8:	1105883a 	add	r2,r2,r4
  800dcc:	10800a84 	addi	r2,r2,42
  800dd0:	10c00005 	stb	r3,0(r2)
		j++;
  800dd4:	e0bffd17 	ldw	r2,-12(fp)
  800dd8:	10800044 	addi	r2,r2,1
  800ddc:	e0bffd15 	stw	r2,-12(fp)
		k++;
  800de0:	e0bffc17 	ldw	r2,-16(fp)
  800de4:	10800044 	addi	r2,r2,1
  800de8:	e0bffc15 	stw	r2,-16(fp)
	printf("Longitude                        = %s", packet_GGA->longitude);

	k = 0;

	/****** Parses East/West String ******/
	while(pkt[j] != ','){
  800dec:	e0bffd17 	ldw	r2,-12(fp)
  800df0:	1007883a 	mov	r3,r2
  800df4:	e0bffe17 	ldw	r2,-8(fp)
  800df8:	1885883a 	add	r2,r3,r2
  800dfc:	10800003 	ldbu	r2,0(r2)
  800e00:	10803fcc 	andi	r2,r2,255
  800e04:	1080201c 	xori	r2,r2,128
  800e08:	10bfe004 	addi	r2,r2,-128
  800e0c:	10800b18 	cmpnei	r2,r2,44
  800e10:	103fe61e 	bne	r2,zero,800dac <parse_GGA+0x36c>
		packet_GGA->ew[k] = pkt[j];
		j++;
		k++;
	}
	j++;
  800e14:	e0bffd17 	ldw	r2,-12(fp)
  800e18:	10800044 	addi	r2,r2,1
  800e1c:	e0bffd15 	stw	r2,-12(fp)
	k++;
  800e20:	e0bffc17 	ldw	r2,-16(fp)
  800e24:	10800044 	addi	r2,r2,1
  800e28:	e0bffc15 	stw	r2,-16(fp)
	packet_GGA->ew[k] = '\0';
  800e2c:	e0fffc17 	ldw	r3,-16(fp)
  800e30:	e0bfff17 	ldw	r2,-4(fp)
  800e34:	10c5883a 	add	r2,r2,r3
  800e38:	10800a84 	addi	r2,r2,42
  800e3c:	10000005 	stb	zero,0(r2)

	printf(" %c\n", packet_GGA->ew[0]);
  800e40:	e0bfff17 	ldw	r2,-4(fp)
  800e44:	10800a83 	ldbu	r2,42(r2)
  800e48:	11403fcc 	andi	r5,r2,255
  800e4c:	2940201c 	xori	r5,r5,128
  800e50:	297fe004 	addi	r5,r5,-128
  800e54:	010020b4 	movhi	r4,130
  800e58:	21325604 	addi	r4,r4,-13992
  800e5c:	0807b780 	call	807b78 <printf>

	k = 0;
  800e60:	e03ffc15 	stw	zero,-16(fp)

	/****** Parses Quality String ******/
	while(pkt[j] != ','){
  800e64:	00001006 	br	800ea8 <parse_GGA+0x468>
		packet_GGA->qual[k] = pkt[j];
  800e68:	e13ffc17 	ldw	r4,-16(fp)
  800e6c:	e0bffd17 	ldw	r2,-12(fp)
  800e70:	1007883a 	mov	r3,r2
  800e74:	e0bffe17 	ldw	r2,-8(fp)
  800e78:	1885883a 	add	r2,r3,r2
  800e7c:	10c00003 	ldbu	r3,0(r2)
  800e80:	e0bfff17 	ldw	r2,-4(fp)
  800e84:	2085883a 	add	r2,r4,r2
  800e88:	10800b04 	addi	r2,r2,44
  800e8c:	10c00005 	stb	r3,0(r2)
		j++;
  800e90:	e0bffd17 	ldw	r2,-12(fp)
  800e94:	10800044 	addi	r2,r2,1
  800e98:	e0bffd15 	stw	r2,-12(fp)
		k++;
  800e9c:	e0bffc17 	ldw	r2,-16(fp)
  800ea0:	10800044 	addi	r2,r2,1
  800ea4:	e0bffc15 	stw	r2,-16(fp)
	printf(" %c\n", packet_GGA->ew[0]);

	k = 0;

	/****** Parses Quality String ******/
	while(pkt[j] != ','){
  800ea8:	e0bffd17 	ldw	r2,-12(fp)
  800eac:	1007883a 	mov	r3,r2
  800eb0:	e0bffe17 	ldw	r2,-8(fp)
  800eb4:	1885883a 	add	r2,r3,r2
  800eb8:	10800003 	ldbu	r2,0(r2)
  800ebc:	10803fcc 	andi	r2,r2,255
  800ec0:	1080201c 	xori	r2,r2,128
  800ec4:	10bfe004 	addi	r2,r2,-128
  800ec8:	10800b18 	cmpnei	r2,r2,44
  800ecc:	103fe61e 	bne	r2,zero,800e68 <parse_GGA+0x428>
		packet_GGA->qual[k] = pkt[j];
		j++;
		k++;
	}
	j++;
  800ed0:	e0bffd17 	ldw	r2,-12(fp)
  800ed4:	10800044 	addi	r2,r2,1
  800ed8:	e0bffd15 	stw	r2,-12(fp)
	k++;
  800edc:	e0bffc17 	ldw	r2,-16(fp)
  800ee0:	10800044 	addi	r2,r2,1
  800ee4:	e0bffc15 	stw	r2,-16(fp)
	packet_GGA->qual[k] = '\0';
  800ee8:	e0fffc17 	ldw	r3,-16(fp)
  800eec:	e0bfff17 	ldw	r2,-4(fp)
  800ef0:	1885883a 	add	r2,r3,r2
  800ef4:	10800b04 	addi	r2,r2,44
  800ef8:	10000005 	stb	zero,0(r2)

	printf("Quality                          = %c\n", packet_GGA->qual[0]);
  800efc:	e0bfff17 	ldw	r2,-4(fp)
  800f00:	10800b03 	ldbu	r2,44(r2)
  800f04:	11403fcc 	andi	r5,r2,255
  800f08:	2940201c 	xori	r5,r5,128
  800f0c:	297fe004 	addi	r5,r5,-128
  800f10:	010020b4 	movhi	r4,130
  800f14:	21326204 	addi	r4,r4,-13944
  800f18:	0807b780 	call	807b78 <printf>

	k = 0;
  800f1c:	e03ffc15 	stw	zero,-16(fp)

	/****** Parses Satellite Number String ******/
	while(pkt[j] != ','){
  800f20:	00001006 	br	800f64 <parse_GGA+0x524>
		packet_GGA->satnum[k] = pkt[j];
  800f24:	e13ffc17 	ldw	r4,-16(fp)
  800f28:	e0bffd17 	ldw	r2,-12(fp)
  800f2c:	1007883a 	mov	r3,r2
  800f30:	e0bffe17 	ldw	r2,-8(fp)
  800f34:	1885883a 	add	r2,r3,r2
  800f38:	10c00003 	ldbu	r3,0(r2)
  800f3c:	e0bfff17 	ldw	r2,-4(fp)
  800f40:	1105883a 	add	r2,r2,r4
  800f44:	10800b84 	addi	r2,r2,46
  800f48:	10c00005 	stb	r3,0(r2)
		j++;
  800f4c:	e0bffd17 	ldw	r2,-12(fp)
  800f50:	10800044 	addi	r2,r2,1
  800f54:	e0bffd15 	stw	r2,-12(fp)
		k++;
  800f58:	e0bffc17 	ldw	r2,-16(fp)
  800f5c:	10800044 	addi	r2,r2,1
  800f60:	e0bffc15 	stw	r2,-16(fp)
	printf("Quality                          = %c\n", packet_GGA->qual[0]);

	k = 0;

	/****** Parses Satellite Number String ******/
	while(pkt[j] != ','){
  800f64:	e0bffd17 	ldw	r2,-12(fp)
  800f68:	1007883a 	mov	r3,r2
  800f6c:	e0bffe17 	ldw	r2,-8(fp)
  800f70:	1885883a 	add	r2,r3,r2
  800f74:	10800003 	ldbu	r2,0(r2)
  800f78:	10803fcc 	andi	r2,r2,255
  800f7c:	1080201c 	xori	r2,r2,128
  800f80:	10bfe004 	addi	r2,r2,-128
  800f84:	10800b18 	cmpnei	r2,r2,44
  800f88:	103fe61e 	bne	r2,zero,800f24 <parse_GGA+0x4e4>
		packet_GGA->satnum[k] = pkt[j];
		j++;
		k++;
	}
	j++;
  800f8c:	e0bffd17 	ldw	r2,-12(fp)
  800f90:	10800044 	addi	r2,r2,1
  800f94:	e0bffd15 	stw	r2,-12(fp)
	//k++;
	packet_GGA->satnum[k] = '\0';
  800f98:	e0fffc17 	ldw	r3,-16(fp)
  800f9c:	e0bfff17 	ldw	r2,-4(fp)
  800fa0:	10c5883a 	add	r2,r2,r3
  800fa4:	10800b84 	addi	r2,r2,46
  800fa8:	10000005 	stb	zero,0(r2)

	printf("Number of satellites             = %s\n", packet_GGA->satnum);
  800fac:	e0bfff17 	ldw	r2,-4(fp)
  800fb0:	11400b84 	addi	r5,r2,46
  800fb4:	010020b4 	movhi	r4,130
  800fb8:	21326c04 	addi	r4,r4,-13904
  800fbc:	0807b780 	call	807b78 <printf>

	k = 0;
  800fc0:	e03ffc15 	stw	zero,-16(fp)

	/****** Parses HDOP String ******/
	while(pkt[j] != ','){
  800fc4:	00001006 	br	801008 <parse_GGA+0x5c8>
		packet_GGA->hdop[k] = pkt[j];
  800fc8:	e13ffc17 	ldw	r4,-16(fp)
  800fcc:	e0bffd17 	ldw	r2,-12(fp)
  800fd0:	1007883a 	mov	r3,r2
  800fd4:	e0bffe17 	ldw	r2,-8(fp)
  800fd8:	1885883a 	add	r2,r3,r2
  800fdc:	10c00003 	ldbu	r3,0(r2)
  800fe0:	e0bfff17 	ldw	r2,-4(fp)
  800fe4:	1105883a 	add	r2,r2,r4
  800fe8:	10800c44 	addi	r2,r2,49
  800fec:	10c00005 	stb	r3,0(r2)
		j++;
  800ff0:	e0bffd17 	ldw	r2,-12(fp)
  800ff4:	10800044 	addi	r2,r2,1
  800ff8:	e0bffd15 	stw	r2,-12(fp)
		k++;
  800ffc:	e0bffc17 	ldw	r2,-16(fp)
  801000:	10800044 	addi	r2,r2,1
  801004:	e0bffc15 	stw	r2,-16(fp)
	printf("Number of satellites             = %s\n", packet_GGA->satnum);

	k = 0;

	/****** Parses HDOP String ******/
	while(pkt[j] != ','){
  801008:	e0bffd17 	ldw	r2,-12(fp)
  80100c:	1007883a 	mov	r3,r2
  801010:	e0bffe17 	ldw	r2,-8(fp)
  801014:	1885883a 	add	r2,r3,r2
  801018:	10800003 	ldbu	r2,0(r2)
  80101c:	10803fcc 	andi	r2,r2,255
  801020:	1080201c 	xori	r2,r2,128
  801024:	10bfe004 	addi	r2,r2,-128
  801028:	10800b18 	cmpnei	r2,r2,44
  80102c:	103fe61e 	bne	r2,zero,800fc8 <parse_GGA+0x588>
		packet_GGA->hdop[k] = pkt[j];
		j++;
		k++;
	}
	j++;
  801030:	e0bffd17 	ldw	r2,-12(fp)
  801034:	10800044 	addi	r2,r2,1
  801038:	e0bffd15 	stw	r2,-12(fp)
	//k++;
	packet_GGA->hdop[k] = '\0';
  80103c:	e0fffc17 	ldw	r3,-16(fp)
  801040:	e0bfff17 	ldw	r2,-4(fp)
  801044:	10c5883a 	add	r2,r2,r3
  801048:	10800c44 	addi	r2,r2,49
  80104c:	10000005 	stb	zero,0(r2)

	printf("Horizontal Dilution of Precision = %s\n", packet_GGA->hdop);
  801050:	e0bfff17 	ldw	r2,-4(fp)
  801054:	11400c44 	addi	r5,r2,49
  801058:	010020b4 	movhi	r4,130
  80105c:	21327604 	addi	r4,r4,-13864
  801060:	0807b780 	call	807b78 <printf>

	k = 0;
  801064:	e03ffc15 	stw	zero,-16(fp)

	/****** Parses Antenna Height String ******/
	while(pkt[j] != ','){
  801068:	00001006 	br	8010ac <parse_GGA+0x66c>
		packet_GGA->ant_ht[k] = pkt[j];
  80106c:	e13ffc17 	ldw	r4,-16(fp)
  801070:	e0bffd17 	ldw	r2,-12(fp)
  801074:	1007883a 	mov	r3,r2
  801078:	e0bffe17 	ldw	r2,-8(fp)
  80107c:	1885883a 	add	r2,r3,r2
  801080:	10c00003 	ldbu	r3,0(r2)
  801084:	e0bfff17 	ldw	r2,-4(fp)
  801088:	1105883a 	add	r2,r2,r4
  80108c:	10800d84 	addi	r2,r2,54
  801090:	10c00005 	stb	r3,0(r2)
		j++;
  801094:	e0bffd17 	ldw	r2,-12(fp)
  801098:	10800044 	addi	r2,r2,1
  80109c:	e0bffd15 	stw	r2,-12(fp)
		k++;
  8010a0:	e0bffc17 	ldw	r2,-16(fp)
  8010a4:	10800044 	addi	r2,r2,1
  8010a8:	e0bffc15 	stw	r2,-16(fp)
	printf("Horizontal Dilution of Precision = %s\n", packet_GGA->hdop);

	k = 0;

	/****** Parses Antenna Height String ******/
	while(pkt[j] != ','){
  8010ac:	e0bffd17 	ldw	r2,-12(fp)
  8010b0:	1007883a 	mov	r3,r2
  8010b4:	e0bffe17 	ldw	r2,-8(fp)
  8010b8:	1885883a 	add	r2,r3,r2
  8010bc:	10800003 	ldbu	r2,0(r2)
  8010c0:	10803fcc 	andi	r2,r2,255
  8010c4:	1080201c 	xori	r2,r2,128
  8010c8:	10bfe004 	addi	r2,r2,-128
  8010cc:	10800b18 	cmpnei	r2,r2,44
  8010d0:	103fe61e 	bne	r2,zero,80106c <parse_GGA+0x62c>
		packet_GGA->ant_ht[k] = pkt[j];
		j++;
		k++;
	}
	j++;
  8010d4:	e0bffd17 	ldw	r2,-12(fp)
  8010d8:	10800044 	addi	r2,r2,1
  8010dc:	e0bffd15 	stw	r2,-12(fp)
	//k++;
	packet_GGA->ant_ht[k] = '\0';
  8010e0:	e0fffc17 	ldw	r3,-16(fp)
  8010e4:	e0bfff17 	ldw	r2,-4(fp)
  8010e8:	10c5883a 	add	r2,r2,r3
  8010ec:	10800d84 	addi	r2,r2,54
  8010f0:	10000005 	stb	zero,0(r2)

	printf("Antenna Height                   = %s", packet_GGA->ant_ht);
  8010f4:	e0bfff17 	ldw	r2,-4(fp)
  8010f8:	11400d84 	addi	r5,r2,54
  8010fc:	010020b4 	movhi	r4,130
  801100:	21328004 	addi	r4,r4,-13824
  801104:	0807b780 	call	807b78 <printf>

	k = 0;
  801108:	e03ffc15 	stw	zero,-16(fp)

	/****** Parses Antenna Units String ******/
	while(pkt[j] != ','){
  80110c:	00001006 	br	801150 <parse_GGA+0x710>
		packet_GGA->ant_unt[k] = pkt[j];
  801110:	e13ffc17 	ldw	r4,-16(fp)
  801114:	e0bffd17 	ldw	r2,-12(fp)
  801118:	1007883a 	mov	r3,r2
  80111c:	e0bffe17 	ldw	r2,-8(fp)
  801120:	1885883a 	add	r2,r3,r2
  801124:	10c00003 	ldbu	r3,0(r2)
  801128:	e0bfff17 	ldw	r2,-4(fp)
  80112c:	1105883a 	add	r2,r2,r4
  801130:	10800f44 	addi	r2,r2,61
  801134:	10c00005 	stb	r3,0(r2)
		j++;
  801138:	e0bffd17 	ldw	r2,-12(fp)
  80113c:	10800044 	addi	r2,r2,1
  801140:	e0bffd15 	stw	r2,-12(fp)
		k++;
  801144:	e0bffc17 	ldw	r2,-16(fp)
  801148:	10800044 	addi	r2,r2,1
  80114c:	e0bffc15 	stw	r2,-16(fp)
	printf("Antenna Height                   = %s", packet_GGA->ant_ht);

	k = 0;

	/****** Parses Antenna Units String ******/
	while(pkt[j] != ','){
  801150:	e0bffd17 	ldw	r2,-12(fp)
  801154:	1007883a 	mov	r3,r2
  801158:	e0bffe17 	ldw	r2,-8(fp)
  80115c:	1885883a 	add	r2,r3,r2
  801160:	10800003 	ldbu	r2,0(r2)
  801164:	10803fcc 	andi	r2,r2,255
  801168:	1080201c 	xori	r2,r2,128
  80116c:	10bfe004 	addi	r2,r2,-128
  801170:	10800b18 	cmpnei	r2,r2,44
  801174:	103fe61e 	bne	r2,zero,801110 <parse_GGA+0x6d0>
		packet_GGA->ant_unt[k] = pkt[j];
		j++;
		k++;
	}
	j++;
  801178:	e0bffd17 	ldw	r2,-12(fp)
  80117c:	10800044 	addi	r2,r2,1
  801180:	e0bffd15 	stw	r2,-12(fp)
	//k++;
	packet_GGA->ant_unt[k] = '\0';
  801184:	e0fffc17 	ldw	r3,-16(fp)
  801188:	e0bfff17 	ldw	r2,-4(fp)
  80118c:	10c5883a 	add	r2,r2,r3
  801190:	10800f44 	addi	r2,r2,61
  801194:	10000005 	stb	zero,0(r2)

	printf(" %s\n", packet_GGA->ant_unt);
  801198:	e0bfff17 	ldw	r2,-4(fp)
  80119c:	11400f44 	addi	r5,r2,61
  8011a0:	010020b4 	movhi	r4,130
  8011a4:	21328a04 	addi	r4,r4,-13784
  8011a8:	0807b780 	call	807b78 <printf>

	k = 0;
  8011ac:	e03ffc15 	stw	zero,-16(fp)

	/****** Parses Geoid Differential String ******/
	while(pkt[j] != ','){
  8011b0:	00001006 	br	8011f4 <parse_GGA+0x7b4>
		packet_GGA->geoid_diff[k] = pkt[j];
  8011b4:	e13ffc17 	ldw	r4,-16(fp)
  8011b8:	e0bffd17 	ldw	r2,-12(fp)
  8011bc:	1007883a 	mov	r3,r2
  8011c0:	e0bffe17 	ldw	r2,-8(fp)
  8011c4:	1885883a 	add	r2,r3,r2
  8011c8:	10c00003 	ldbu	r3,0(r2)
  8011cc:	e0bfff17 	ldw	r2,-4(fp)
  8011d0:	1105883a 	add	r2,r2,r4
  8011d4:	10800fc4 	addi	r2,r2,63
  8011d8:	10c00005 	stb	r3,0(r2)
		j++;
  8011dc:	e0bffd17 	ldw	r2,-12(fp)
  8011e0:	10800044 	addi	r2,r2,1
  8011e4:	e0bffd15 	stw	r2,-12(fp)
		k++;
  8011e8:	e0bffc17 	ldw	r2,-16(fp)
  8011ec:	10800044 	addi	r2,r2,1
  8011f0:	e0bffc15 	stw	r2,-16(fp)
	printf(" %s\n", packet_GGA->ant_unt);

	k = 0;

	/****** Parses Geoid Differential String ******/
	while(pkt[j] != ','){
  8011f4:	e0bffd17 	ldw	r2,-12(fp)
  8011f8:	1007883a 	mov	r3,r2
  8011fc:	e0bffe17 	ldw	r2,-8(fp)
  801200:	1885883a 	add	r2,r3,r2
  801204:	10800003 	ldbu	r2,0(r2)
  801208:	10803fcc 	andi	r2,r2,255
  80120c:	1080201c 	xori	r2,r2,128
  801210:	10bfe004 	addi	r2,r2,-128
  801214:	10800b18 	cmpnei	r2,r2,44
  801218:	103fe61e 	bne	r2,zero,8011b4 <parse_GGA+0x774>
		packet_GGA->geoid_diff[k] = pkt[j];
		j++;
		k++;
	}
	j++;
  80121c:	e0bffd17 	ldw	r2,-12(fp)
  801220:	10800044 	addi	r2,r2,1
  801224:	e0bffd15 	stw	r2,-12(fp)
	//k++;
	packet_GGA->geoid_diff[k] = '\0';
  801228:	e0fffc17 	ldw	r3,-16(fp)
  80122c:	e0bfff17 	ldw	r2,-4(fp)
  801230:	10c5883a 	add	r2,r2,r3
  801234:	10800fc4 	addi	r2,r2,63
  801238:	10000005 	stb	zero,0(r2)

	printf("Geoid Differential               = %s", packet_GGA->geoid_diff);
  80123c:	e0bfff17 	ldw	r2,-4(fp)
  801240:	11400fc4 	addi	r5,r2,63
  801244:	010020b4 	movhi	r4,130
  801248:	21328c04 	addi	r4,r4,-13776
  80124c:	0807b780 	call	807b78 <printf>

	k = 0;
  801250:	e03ffc15 	stw	zero,-16(fp)

	/****** Parses Geoid Differential Units String ******/
	while(pkt[j] != ','){
  801254:	00001006 	br	801298 <parse_GGA+0x858>
		packet_GGA->geoid_unt[k] = pkt[j];
  801258:	e13ffc17 	ldw	r4,-16(fp)
  80125c:	e0bffd17 	ldw	r2,-12(fp)
  801260:	1007883a 	mov	r3,r2
  801264:	e0bffe17 	ldw	r2,-8(fp)
  801268:	1885883a 	add	r2,r3,r2
  80126c:	10c00003 	ldbu	r3,0(r2)
  801270:	e0bfff17 	ldw	r2,-4(fp)
  801274:	1105883a 	add	r2,r2,r4
  801278:	10801184 	addi	r2,r2,70
  80127c:	10c00005 	stb	r3,0(r2)
		j++;
  801280:	e0bffd17 	ldw	r2,-12(fp)
  801284:	10800044 	addi	r2,r2,1
  801288:	e0bffd15 	stw	r2,-12(fp)
		k++;
  80128c:	e0bffc17 	ldw	r2,-16(fp)
  801290:	10800044 	addi	r2,r2,1
  801294:	e0bffc15 	stw	r2,-16(fp)
	printf("Geoid Differential               = %s", packet_GGA->geoid_diff);

	k = 0;

	/****** Parses Geoid Differential Units String ******/
	while(pkt[j] != ','){
  801298:	e0bffd17 	ldw	r2,-12(fp)
  80129c:	1007883a 	mov	r3,r2
  8012a0:	e0bffe17 	ldw	r2,-8(fp)
  8012a4:	1885883a 	add	r2,r3,r2
  8012a8:	10800003 	ldbu	r2,0(r2)
  8012ac:	10803fcc 	andi	r2,r2,255
  8012b0:	1080201c 	xori	r2,r2,128
  8012b4:	10bfe004 	addi	r2,r2,-128
  8012b8:	10800b18 	cmpnei	r2,r2,44
  8012bc:	103fe61e 	bne	r2,zero,801258 <parse_GGA+0x818>
		packet_GGA->geoid_unt[k] = pkt[j];
		j++;
		k++;
	}
	j++;
  8012c0:	e0bffd17 	ldw	r2,-12(fp)
  8012c4:	10800044 	addi	r2,r2,1
  8012c8:	e0bffd15 	stw	r2,-12(fp)
	//k++;
	packet_GGA->geoid_unt[k] = '\0';
  8012cc:	e0fffc17 	ldw	r3,-16(fp)
  8012d0:	e0bfff17 	ldw	r2,-4(fp)
  8012d4:	10c5883a 	add	r2,r2,r3
  8012d8:	10801184 	addi	r2,r2,70
  8012dc:	10000005 	stb	zero,0(r2)

	printf(" %s\n", packet_GGA->geoid_unt);
  8012e0:	e0bfff17 	ldw	r2,-4(fp)
  8012e4:	11401184 	addi	r5,r2,70
  8012e8:	010020b4 	movhi	r4,130
  8012ec:	21328a04 	addi	r4,r4,-13784
  8012f0:	0807b780 	call	807b78 <printf>

	k = 0;
  8012f4:	e03ffc15 	stw	zero,-16(fp)

	while((pkt[j] == ',')||(pkt[j] == '*')){
  8012f8:	00000306 	br	801308 <parse_GGA+0x8c8>
		j++;
  8012fc:	e0bffd17 	ldw	r2,-12(fp)
  801300:	10800044 	addi	r2,r2,1
  801304:	e0bffd15 	stw	r2,-12(fp)

	printf(" %s\n", packet_GGA->geoid_unt);

	k = 0;

	while((pkt[j] == ',')||(pkt[j] == '*')){
  801308:	e0bffd17 	ldw	r2,-12(fp)
  80130c:	1007883a 	mov	r3,r2
  801310:	e0bffe17 	ldw	r2,-8(fp)
  801314:	1885883a 	add	r2,r3,r2
  801318:	10800003 	ldbu	r2,0(r2)
  80131c:	10803fcc 	andi	r2,r2,255
  801320:	1080201c 	xori	r2,r2,128
  801324:	10bfe004 	addi	r2,r2,-128
  801328:	10800b20 	cmpeqi	r2,r2,44
  80132c:	103ff31e 	bne	r2,zero,8012fc <parse_GGA+0x8bc>
  801330:	e0bffd17 	ldw	r2,-12(fp)
  801334:	1007883a 	mov	r3,r2
  801338:	e0bffe17 	ldw	r2,-8(fp)
  80133c:	1885883a 	add	r2,r3,r2
  801340:	10800003 	ldbu	r2,0(r2)
  801344:	10803fcc 	andi	r2,r2,255
  801348:	1080201c 	xori	r2,r2,128
  80134c:	10bfe004 	addi	r2,r2,-128
  801350:	10800aa0 	cmpeqi	r2,r2,42
  801354:	103fe91e 	bne	r2,zero,8012fc <parse_GGA+0x8bc>
		j++;
	};

	/****** Parses Checksum String ******/
	while(pkt[j] != '\n'){
  801358:	00001006 	br	80139c <parse_GGA+0x95c>
		packet_GGA->cs[k] = pkt[j];
  80135c:	e13ffc17 	ldw	r4,-16(fp)
  801360:	e0bffd17 	ldw	r2,-12(fp)
  801364:	1007883a 	mov	r3,r2
  801368:	e0bffe17 	ldw	r2,-8(fp)
  80136c:	1885883a 	add	r2,r3,r2
  801370:	10c00003 	ldbu	r3,0(r2)
  801374:	e0bfff17 	ldw	r2,-4(fp)
  801378:	2085883a 	add	r2,r4,r2
  80137c:	10801204 	addi	r2,r2,72
  801380:	10c00005 	stb	r3,0(r2)
		j++;
  801384:	e0bffd17 	ldw	r2,-12(fp)
  801388:	10800044 	addi	r2,r2,1
  80138c:	e0bffd15 	stw	r2,-12(fp)
		k++;
  801390:	e0bffc17 	ldw	r2,-16(fp)
  801394:	10800044 	addi	r2,r2,1
  801398:	e0bffc15 	stw	r2,-16(fp)
	while((pkt[j] == ',')||(pkt[j] == '*')){
		j++;
	};

	/****** Parses Checksum String ******/
	while(pkt[j] != '\n'){
  80139c:	e0bffd17 	ldw	r2,-12(fp)
  8013a0:	1007883a 	mov	r3,r2
  8013a4:	e0bffe17 	ldw	r2,-8(fp)
  8013a8:	1885883a 	add	r2,r3,r2
  8013ac:	10800003 	ldbu	r2,0(r2)
  8013b0:	10803fcc 	andi	r2,r2,255
  8013b4:	1080201c 	xori	r2,r2,128
  8013b8:	10bfe004 	addi	r2,r2,-128
  8013bc:	10800298 	cmpnei	r2,r2,10
  8013c0:	103fe61e 	bne	r2,zero,80135c <parse_GGA+0x91c>
		packet_GGA->cs[k] = pkt[j];
		j++;
		k++;
	}
	j++;
  8013c4:	e0bffd17 	ldw	r2,-12(fp)
  8013c8:	10800044 	addi	r2,r2,1
  8013cc:	e0bffd15 	stw	r2,-12(fp)
	//k++;
	packet_GGA->cs[k] = '\0';
  8013d0:	e0fffc17 	ldw	r3,-16(fp)
  8013d4:	e0bfff17 	ldw	r2,-4(fp)
  8013d8:	1885883a 	add	r2,r3,r2
  8013dc:	10801204 	addi	r2,r2,72
  8013e0:	10000005 	stb	zero,0(r2)

	printf("Checksum                         = %s\n", packet_GGA->cs);
  8013e4:	e0bfff17 	ldw	r2,-4(fp)
  8013e8:	11401204 	addi	r5,r2,72
  8013ec:	010020b4 	movhi	r4,130
  8013f0:	21329604 	addi	r4,r4,-13736
  8013f4:	0807b780 	call	807b78 <printf>
	printf("\n");
  8013f8:	01000284 	movi	r4,10
  8013fc:	0807bf00 	call	807bf0 <putchar>

	k = 0;
  801400:	e03ffc15 	stw	zero,-16(fp)
};
  801404:	e037883a 	mov	sp,fp
  801408:	dfc00117 	ldw	ra,4(sp)
  80140c:	df000017 	ldw	fp,0(sp)
  801410:	dec00204 	addi	sp,sp,8
  801414:	f800283a 	ret

00801418 <check_upd>:

char check_upd(char test, char cs){
  801418:	defffd04 	addi	sp,sp,-12
  80141c:	df000215 	stw	fp,8(sp)
  801420:	df000204 	addi	fp,sp,8
  801424:	e13ffe05 	stb	r4,-8(fp)
  801428:	e17fff05 	stb	r5,-4(fp)
  cs = (cs ^ test);
  80142c:	e0ffff03 	ldbu	r3,-4(fp)
  801430:	e0bffe03 	ldbu	r2,-8(fp)
  801434:	1884f03a 	xor	r2,r3,r2
  801438:	e0bfff05 	stb	r2,-4(fp)
  return(cs);
  80143c:	e0bfff07 	ldb	r2,-4(fp)
};
  801440:	e037883a 	mov	sp,fp
  801444:	df000017 	ldw	fp,0(sp)
  801448:	dec00104 	addi	sp,sp,4
  80144c:	f800283a 	ret

00801450 <atoh>:

int atoh(char test){
  801450:	defffc04 	addi	sp,sp,-16
  801454:	df000315 	stw	fp,12(sp)
  801458:	df000304 	addi	fp,sp,12
  80145c:	e13ffe05 	stb	r4,-8(fp)
	int temp;
	switch(test){
  801460:	e0bffe07 	ldb	r2,-8(fp)
  801464:	10bff404 	addi	r2,r2,-48
  801468:	e0bfff15 	stw	r2,-4(fp)
  80146c:	e0ffff17 	ldw	r3,-4(fp)
  801470:	188005e8 	cmpgeui	r2,r3,23
  801474:	10004f1e 	bne	r2,zero,8015b4 <atoh+0x164>
  801478:	e13fff17 	ldw	r4,-4(fp)
  80147c:	e13fff17 	ldw	r4,-4(fp)
  801480:	2105883a 	add	r2,r4,r4
  801484:	1087883a 	add	r3,r2,r2
  801488:	00802034 	movhi	r2,128
  80148c:	10852704 	addi	r2,r2,5276
  801490:	1885883a 	add	r2,r3,r2
  801494:	10800017 	ldw	r2,0(r2)
  801498:	1000683a 	jmp	r2
  80149c:	008014f8 	rdprs	r2,zero,83
  8014a0:	00801500 	call	80150 <OSCtxSw_SWITCH_PC+0x80110>
  8014a4:	0080150c 	andi	r2,zero,84
  8014a8:	00801518 	cmpnei	r2,zero,84
  8014ac:	00801524 	muli	r2,zero,84
  8014b0:	00801530 	cmpltui	r2,zero,84
  8014b4:	0080153c 	xorhi	r2,zero,84
  8014b8:	00801548 	cmpgei	r2,zero,85
  8014bc:	00801554 	movui	r2,85
  8014c0:	00801560 	cmpeqi	r2,zero,85
  8014c4:	008015b4 	movhi	r2,86
  8014c8:	008015b4 	movhi	r2,86
  8014cc:	008015b4 	movhi	r2,86
  8014d0:	008015b4 	movhi	r2,86
  8014d4:	008015b4 	movhi	r2,86
  8014d8:	008015b4 	movhi	r2,86
  8014dc:	008015b4 	movhi	r2,86
  8014e0:	0080156c 	andhi	r2,zero,85
  8014e4:	00801578 	rdprs	r2,zero,85
  8014e8:	00801584 	movi	r2,86
  8014ec:	00801590 	cmplti	r2,zero,86
  8014f0:	0080159c 	xori	r2,zero,86
  8014f4:	008015a8 	cmpgeui	r2,zero,86
	case '0':
		temp = 0; break;
  8014f8:	e03ffd15 	stw	zero,-12(fp)
  8014fc:	00002e06 	br	8015b8 <atoh+0x168>
	case '1':
		temp = 1; break;
  801500:	00800044 	movi	r2,1
  801504:	e0bffd15 	stw	r2,-12(fp)
  801508:	00002b06 	br	8015b8 <atoh+0x168>
	case '2':
		temp = 2; break;
  80150c:	00800084 	movi	r2,2
  801510:	e0bffd15 	stw	r2,-12(fp)
  801514:	00002806 	br	8015b8 <atoh+0x168>
	case '3':
		temp = 3; break;
  801518:	008000c4 	movi	r2,3
  80151c:	e0bffd15 	stw	r2,-12(fp)
  801520:	00002506 	br	8015b8 <atoh+0x168>
	case '4':
		temp = 4; break;
  801524:	00800104 	movi	r2,4
  801528:	e0bffd15 	stw	r2,-12(fp)
  80152c:	00002206 	br	8015b8 <atoh+0x168>
	case '5':
		temp = 5; break;
  801530:	00800144 	movi	r2,5
  801534:	e0bffd15 	stw	r2,-12(fp)
  801538:	00001f06 	br	8015b8 <atoh+0x168>
	case '6':
		temp = 6; break;
  80153c:	00800184 	movi	r2,6
  801540:	e0bffd15 	stw	r2,-12(fp)
  801544:	00001c06 	br	8015b8 <atoh+0x168>
	case '7':
		temp = 7; break;
  801548:	008001c4 	movi	r2,7
  80154c:	e0bffd15 	stw	r2,-12(fp)
  801550:	00001906 	br	8015b8 <atoh+0x168>
	case '8':
		temp = 8; break;
  801554:	00800204 	movi	r2,8
  801558:	e0bffd15 	stw	r2,-12(fp)
  80155c:	00001606 	br	8015b8 <atoh+0x168>
	case '9':
		temp = 9; break;
  801560:	00800244 	movi	r2,9
  801564:	e0bffd15 	stw	r2,-12(fp)
  801568:	00001306 	br	8015b8 <atoh+0x168>
	case 'A':
		temp = 10; break;
  80156c:	00800284 	movi	r2,10
  801570:	e0bffd15 	stw	r2,-12(fp)
  801574:	00001006 	br	8015b8 <atoh+0x168>
	case 'B':
		temp = 11; break;
  801578:	008002c4 	movi	r2,11
  80157c:	e0bffd15 	stw	r2,-12(fp)
  801580:	00000d06 	br	8015b8 <atoh+0x168>
	case 'C':
		temp = 12; break;
  801584:	00800304 	movi	r2,12
  801588:	e0bffd15 	stw	r2,-12(fp)
  80158c:	00000a06 	br	8015b8 <atoh+0x168>
	case 'D':
		temp = 13; break;
  801590:	00800344 	movi	r2,13
  801594:	e0bffd15 	stw	r2,-12(fp)
  801598:	00000706 	br	8015b8 <atoh+0x168>
	case 'E':
		temp = 14; break;
  80159c:	00800384 	movi	r2,14
  8015a0:	e0bffd15 	stw	r2,-12(fp)
  8015a4:	00000406 	br	8015b8 <atoh+0x168>
	case 'F':
		temp = 15; break;
  8015a8:	008003c4 	movi	r2,15
  8015ac:	e0bffd15 	stw	r2,-12(fp)
  8015b0:	00000106 	br	8015b8 <atoh+0x168>
	default:
		temp = 0;
  8015b4:	e03ffd15 	stw	zero,-12(fp)
	};
	return(temp);
  8015b8:	e0bffd17 	ldw	r2,-12(fp)
};
  8015bc:	e037883a 	mov	sp,fp
  8015c0:	df000017 	ldw	fp,0(sp)
  8015c4:	dec00104 	addi	sp,sp,4
  8015c8:	f800283a 	ret

008015cc <GMT_to_MST>:

char GMT_to_MST(int *time, char *pkt_time){
  8015cc:	defff904 	addi	sp,sp,-28
  8015d0:	dfc00615 	stw	ra,24(sp)
  8015d4:	df000515 	stw	fp,20(sp)
  8015d8:	df000504 	addi	fp,sp,20
  8015dc:	e13ffe15 	stw	r4,-8(fp)
  8015e0:	e17fff15 	stw	r5,-4(fp)
	int j,t1;
	char aorp;
	aorp = 'A';
  8015e4:	00801044 	movi	r2,65
  8015e8:	e0bffb05 	stb	r2,-20(fp)
	for(j = 0; j < 6; j++){										/*Switch statement does all the fun stuff to convert to MST		*/
  8015ec:	e03ffd15 	stw	zero,-12(fp)
  8015f0:	00007f06 	br	8017f0 <GMT_to_MST+0x224>
		switch(j){												/*Uses AtoH function in this library to properly parse time 	*/
  8015f4:	e0bffd17 	ldw	r2,-12(fp)
  8015f8:	108001a8 	cmpgeui	r2,r2,6
  8015fc:	1000781e 	bne	r2,zero,8017e0 <GMT_to_MST+0x214>
  801600:	e0bffd17 	ldw	r2,-12(fp)
  801604:	1085883a 	add	r2,r2,r2
  801608:	1087883a 	add	r3,r2,r2
  80160c:	00802034 	movhi	r2,128
  801610:	10858804 	addi	r2,r2,5664
  801614:	1885883a 	add	r2,r3,r2
  801618:	10800017 	ldw	r2,0(r2)
  80161c:	1000683a 	jmp	r2
  801620:	00801638 	rdprs	r2,zero,88
  801624:	00801668 	cmpgeui	r2,zero,89
  801628:	008016f4 	movhi	r2,91
  80162c:	00801724 	muli	r2,zero,92
  801630:	0080176c 	andhi	r2,zero,93
  801634:	00801798 	cmpnei	r2,zero,94
		case 0:
			t1 = atoh(pkt_time[j])*10; break;
  801638:	e0bffd17 	ldw	r2,-12(fp)
  80163c:	1007883a 	mov	r3,r2
  801640:	e0bfff17 	ldw	r2,-4(fp)
  801644:	1885883a 	add	r2,r3,r2
  801648:	10800003 	ldbu	r2,0(r2)
  80164c:	11003fcc 	andi	r4,r2,255
  801650:	2100201c 	xori	r4,r4,128
  801654:	213fe004 	addi	r4,r4,-128
  801658:	08014500 	call	801450 <atoh>
  80165c:	108002a4 	muli	r2,r2,10
  801660:	e0bffc15 	stw	r2,-16(fp)
  801664:	00005f06 	br	8017e4 <GMT_to_MST+0x218>
		case 1:													/*First IF converts to MST, second converts to nonmilitary time	*/
			t1 = t1 + atoh(pkt_time[j]);
  801668:	e0bffd17 	ldw	r2,-12(fp)
  80166c:	1007883a 	mov	r3,r2
  801670:	e0bfff17 	ldw	r2,-4(fp)
  801674:	1885883a 	add	r2,r3,r2
  801678:	10800003 	ldbu	r2,0(r2)
  80167c:	11003fcc 	andi	r4,r2,255
  801680:	2100201c 	xori	r4,r4,128
  801684:	213fe004 	addi	r4,r4,-128
  801688:	08014500 	call	801450 <atoh>
  80168c:	1007883a 	mov	r3,r2
  801690:	e0bffc17 	ldw	r2,-16(fp)
  801694:	10c5883a 	add	r2,r2,r3
  801698:	e0bffc15 	stw	r2,-16(fp)
			if (t1 > 6){
  80169c:	e0bffc17 	ldw	r2,-16(fp)
  8016a0:	108001d0 	cmplti	r2,r2,7
  8016a4:	1000041e 	bne	r2,zero,8016b8 <GMT_to_MST+0xec>
				t1 = t1 - 6;
  8016a8:	e0bffc17 	ldw	r2,-16(fp)
  8016ac:	10bffe84 	addi	r2,r2,-6
  8016b0:	e0bffc15 	stw	r2,-16(fp)
  8016b4:	00000306 	br	8016c4 <GMT_to_MST+0xf8>
			} else {
				t1 = t1 + 18;
  8016b8:	e0bffc17 	ldw	r2,-16(fp)
  8016bc:	10800484 	addi	r2,r2,18
  8016c0:	e0bffc15 	stw	r2,-16(fp)
			}
			if (t1 > 12){
  8016c4:	e0bffc17 	ldw	r2,-16(fp)
  8016c8:	10800350 	cmplti	r2,r2,13
  8016cc:	1000051e 	bne	r2,zero,8016e4 <GMT_to_MST+0x118>
				t1 = t1 - 12;
  8016d0:	e0bffc17 	ldw	r2,-16(fp)
  8016d4:	10bffd04 	addi	r2,r2,-12
  8016d8:	e0bffc15 	stw	r2,-16(fp)
				aorp = 'P';
  8016dc:	00801404 	movi	r2,80
  8016e0:	e0bffb05 	stb	r2,-20(fp)
			};
			time[0] = t1; break;
  8016e4:	e0fffe17 	ldw	r3,-8(fp)
  8016e8:	e0bffc17 	ldw	r2,-16(fp)
  8016ec:	18800015 	stw	r2,0(r3)
  8016f0:	00003c06 	br	8017e4 <GMT_to_MST+0x218>
		case 2:
			t1 = atoh(pkt_time[j])*10; break;
  8016f4:	e0bffd17 	ldw	r2,-12(fp)
  8016f8:	1007883a 	mov	r3,r2
  8016fc:	e0bfff17 	ldw	r2,-4(fp)
  801700:	1885883a 	add	r2,r3,r2
  801704:	10800003 	ldbu	r2,0(r2)
  801708:	11003fcc 	andi	r4,r2,255
  80170c:	2100201c 	xori	r4,r4,128
  801710:	213fe004 	addi	r4,r4,-128
  801714:	08014500 	call	801450 <atoh>
  801718:	108002a4 	muli	r2,r2,10
  80171c:	e0bffc15 	stw	r2,-16(fp)
  801720:	00003006 	br	8017e4 <GMT_to_MST+0x218>
		case 3:
			t1 = t1 + atoh(pkt_time[j]);
  801724:	e0bffd17 	ldw	r2,-12(fp)
  801728:	1007883a 	mov	r3,r2
  80172c:	e0bfff17 	ldw	r2,-4(fp)
  801730:	1885883a 	add	r2,r3,r2
  801734:	10800003 	ldbu	r2,0(r2)
  801738:	11003fcc 	andi	r4,r2,255
  80173c:	2100201c 	xori	r4,r4,128
  801740:	213fe004 	addi	r4,r4,-128
  801744:	08014500 	call	801450 <atoh>
  801748:	1007883a 	mov	r3,r2
  80174c:	e0bffc17 	ldw	r2,-16(fp)
  801750:	10c5883a 	add	r2,r2,r3
  801754:	e0bffc15 	stw	r2,-16(fp)
			time[1] = t1; break;
  801758:	e0bffe17 	ldw	r2,-8(fp)
  80175c:	10c00104 	addi	r3,r2,4
  801760:	e0bffc17 	ldw	r2,-16(fp)
  801764:	18800015 	stw	r2,0(r3)
  801768:	00001e06 	br	8017e4 <GMT_to_MST+0x218>
		case 4:
			t1 = (atoh(pkt_time[j])*10);
  80176c:	e0bffd17 	ldw	r2,-12(fp)
  801770:	1007883a 	mov	r3,r2
  801774:	e0bfff17 	ldw	r2,-4(fp)
  801778:	1885883a 	add	r2,r3,r2
  80177c:	10800003 	ldbu	r2,0(r2)
  801780:	11003fcc 	andi	r4,r2,255
  801784:	2100201c 	xori	r4,r4,128
  801788:	213fe004 	addi	r4,r4,-128
  80178c:	08014500 	call	801450 <atoh>
  801790:	108002a4 	muli	r2,r2,10
  801794:	e0bffc15 	stw	r2,-16(fp)
		case 5:
			t1 = t1 + atoh(pkt_time[j]);
  801798:	e0bffd17 	ldw	r2,-12(fp)
  80179c:	1007883a 	mov	r3,r2
  8017a0:	e0bfff17 	ldw	r2,-4(fp)
  8017a4:	1885883a 	add	r2,r3,r2
  8017a8:	10800003 	ldbu	r2,0(r2)
  8017ac:	11003fcc 	andi	r4,r2,255
  8017b0:	2100201c 	xori	r4,r4,128
  8017b4:	213fe004 	addi	r4,r4,-128
  8017b8:	08014500 	call	801450 <atoh>
  8017bc:	1007883a 	mov	r3,r2
  8017c0:	e0bffc17 	ldw	r2,-16(fp)
  8017c4:	10c5883a 	add	r2,r2,r3
  8017c8:	e0bffc15 	stw	r2,-16(fp)
			time[2] = t1; break;
  8017cc:	e0bffe17 	ldw	r2,-8(fp)
  8017d0:	10c00204 	addi	r3,r2,8
  8017d4:	e0bffc17 	ldw	r2,-16(fp)
  8017d8:	18800015 	stw	r2,0(r3)
  8017dc:	00000106 	br	8017e4 <GMT_to_MST+0x218>
		default:
			t1 = 0; break;
  8017e0:	e03ffc15 	stw	zero,-16(fp)

char GMT_to_MST(int *time, char *pkt_time){
	int j,t1;
	char aorp;
	aorp = 'A';
	for(j = 0; j < 6; j++){										/*Switch statement does all the fun stuff to convert to MST		*/
  8017e4:	e0bffd17 	ldw	r2,-12(fp)
  8017e8:	10800044 	addi	r2,r2,1
  8017ec:	e0bffd15 	stw	r2,-12(fp)
  8017f0:	e0bffd17 	ldw	r2,-12(fp)
  8017f4:	10800190 	cmplti	r2,r2,6
  8017f8:	103f7e1e 	bne	r2,zero,8015f4 <GMT_to_MST+0x28>
			time[2] = t1; break;
		default:
			t1 = 0; break;
		};
	};
	return(aorp);
  8017fc:	e0bffb07 	ldb	r2,-20(fp)
};
  801800:	e037883a 	mov	sp,fp
  801804:	dfc00117 	ldw	ra,4(sp)
  801808:	df000017 	ldw	fp,0(sp)
  80180c:	dec00204 	addi	sp,sp,8
  801810:	f800283a 	ret

00801814 <m_to_ft>:

double m_to_ft(char *pkt_ht){
  801814:	defff504 	addi	sp,sp,-44
  801818:	dfc00a15 	stw	ra,40(sp)
  80181c:	df000915 	stw	fp,36(sp)
  801820:	dcc00815 	stw	r19,32(sp)
  801824:	dc800715 	stw	r18,28(sp)
  801828:	dc400615 	stw	r17,24(sp)
  80182c:	dc000515 	stw	r16,20(sp)
  801830:	df000504 	addi	fp,sp,20
  801834:	e13fff15 	stw	r4,-4(fp)
	int j,temp;
	double tmp;
	temp = 0;
  801838:	e03ffd15 	stw	zero,-12(fp)
	for(j=0;j<4;j++){													/*Converts meters to feet through for loop*/
  80183c:	e03ffe15 	stw	zero,-8(fp)
  801840:	00003906 	br	801928 <m_to_ft+0x114>
		temp = temp + atoh(pkt_ht[j])*pow(10,(3-j));					/*Reduces power of ten each time through loop*/
  801844:	e13ffd17 	ldw	r4,-12(fp)
  801848:	08055340 	call	805534 <__floatsidf>
  80184c:	1025883a 	mov	r18,r2
  801850:	1827883a 	mov	r19,r3
  801854:	e0bffe17 	ldw	r2,-8(fp)
  801858:	1007883a 	mov	r3,r2
  80185c:	e0bfff17 	ldw	r2,-4(fp)
  801860:	1885883a 	add	r2,r3,r2
  801864:	10800003 	ldbu	r2,0(r2)
  801868:	11003fcc 	andi	r4,r2,255
  80186c:	2100201c 	xori	r4,r4,128
  801870:	213fe004 	addi	r4,r4,-128
  801874:	08014500 	call	801450 <atoh>
  801878:	1009883a 	mov	r4,r2
  80187c:	08055340 	call	805534 <__floatsidf>
  801880:	1021883a 	mov	r16,r2
  801884:	1823883a 	mov	r17,r3
  801888:	00c000c4 	movi	r3,3
  80188c:	e0bffe17 	ldw	r2,-8(fp)
  801890:	1889c83a 	sub	r4,r3,r2
  801894:	08055340 	call	805534 <__floatsidf>
  801898:	100f883a 	mov	r7,r2
  80189c:	1811883a 	mov	r8,r3
  8018a0:	0009883a 	mov	r4,zero
  8018a4:	01500934 	movhi	r5,16420
  8018a8:	380d883a 	mov	r6,r7
  8018ac:	400f883a 	mov	r7,r8
  8018b0:	080288c0 	call	80288c <pow>
  8018b4:	1009883a 	mov	r4,r2
  8018b8:	180b883a 	mov	r5,r3
  8018bc:	2005883a 	mov	r2,r4
  8018c0:	2807883a 	mov	r3,r5
  8018c4:	8009883a 	mov	r4,r16
  8018c8:	880b883a 	mov	r5,r17
  8018cc:	100d883a 	mov	r6,r2
  8018d0:	180f883a 	mov	r7,r3
  8018d4:	0804c700 	call	804c70 <__muldf3>
  8018d8:	1009883a 	mov	r4,r2
  8018dc:	180b883a 	mov	r5,r3
  8018e0:	2005883a 	mov	r2,r4
  8018e4:	2807883a 	mov	r3,r5
  8018e8:	9009883a 	mov	r4,r18
  8018ec:	980b883a 	mov	r5,r19
  8018f0:	100d883a 	mov	r6,r2
  8018f4:	180f883a 	mov	r7,r3
  8018f8:	0804bfc0 	call	804bfc <__adddf3>
  8018fc:	1009883a 	mov	r4,r2
  801900:	180b883a 	mov	r5,r3
  801904:	2005883a 	mov	r2,r4
  801908:	2807883a 	mov	r3,r5
  80190c:	1009883a 	mov	r4,r2
  801910:	180b883a 	mov	r5,r3
  801914:	080562c0 	call	80562c <__fixdfsi>
  801918:	e0bffd15 	stw	r2,-12(fp)

double m_to_ft(char *pkt_ht){
	int j,temp;
	double tmp;
	temp = 0;
	for(j=0;j<4;j++){													/*Converts meters to feet through for loop*/
  80191c:	e0bffe17 	ldw	r2,-8(fp)
  801920:	10800044 	addi	r2,r2,1
  801924:	e0bffe15 	stw	r2,-8(fp)
  801928:	e0bffe17 	ldw	r2,-8(fp)
  80192c:	10800110 	cmplti	r2,r2,4
  801930:	103fc41e 	bne	r2,zero,801844 <m_to_ft+0x30>
		temp = temp + atoh(pkt_ht[j])*pow(10,(3-j));					/*Reduces power of ten each time through loop*/
	}
	tmp = (((double)temp) * 3.28);										/*Multiplies meters into feet*/
  801934:	e13ffd17 	ldw	r4,-12(fp)
  801938:	08055340 	call	805534 <__floatsidf>
  80193c:	100b883a 	mov	r5,r2
  801940:	180d883a 	mov	r6,r3
  801944:	2809883a 	mov	r4,r5
  801948:	300b883a 	mov	r5,r6
  80194c:	01a8f5f4 	movhi	r6,41943
  801950:	31828f44 	addi	r6,r6,2621
  801954:	01d002b4 	movhi	r7,16394
  801958:	39cf5c04 	addi	r7,r7,15728
  80195c:	0804c700 	call	804c70 <__muldf3>
  801960:	1009883a 	mov	r4,r2
  801964:	180b883a 	mov	r5,r3
  801968:	e13ffb15 	stw	r4,-20(fp)
  80196c:	e17ffc15 	stw	r5,-16(fp)
	return(tmp);
  801970:	e17ffb17 	ldw	r5,-20(fp)
  801974:	e1bffc17 	ldw	r6,-16(fp)
  801978:	2807883a 	mov	r3,r5
  80197c:	3009883a 	mov	r4,r6
};
  801980:	1805883a 	mov	r2,r3
  801984:	2007883a 	mov	r3,r4
  801988:	e037883a 	mov	sp,fp
  80198c:	dfc00517 	ldw	ra,20(sp)
  801990:	df000417 	ldw	fp,16(sp)
  801994:	dcc00317 	ldw	r19,12(sp)
  801998:	dc800217 	ldw	r18,8(sp)
  80199c:	dc400117 	ldw	r17,4(sp)
  8019a0:	dc000017 	ldw	r16,0(sp)
  8019a4:	dec00604 	addi	sp,sp,24
  8019a8:	f800283a 	ret

008019ac <lat_to_deg>:

void lat_to_deg(char *pkt_lat, int *lat){
  8019ac:	defff504 	addi	sp,sp,-44
  8019b0:	dfc00a15 	stw	ra,40(sp)
  8019b4:	df000915 	stw	fp,36(sp)
  8019b8:	dcc00815 	stw	r19,32(sp)
  8019bc:	dc800715 	stw	r18,28(sp)
  8019c0:	dc400615 	stw	r17,24(sp)
  8019c4:	dc000515 	stw	r16,20(sp)
  8019c8:	df000504 	addi	fp,sp,20
  8019cc:	e13ffe15 	stw	r4,-8(fp)
  8019d0:	e17fff15 	stw	r5,-4(fp)
	int j,k;
	int temp;
	temp = 0;
  8019d4:	e03ffb15 	stw	zero,-20(fp)
	k = 0;
  8019d8:	e03ffc15 	stw	zero,-16(fp)
	for(j=0;j<2;j++){													/*Converts latitude to double value*/
  8019dc:	e03ffd15 	stw	zero,-12(fp)
  8019e0:	00003706 	br	801ac0 <lat_to_deg+0x114>
		temp = temp + (atoh(pkt_lat[j])*pow(10,(1-j)));			/*Reduces power of ten each time through loop*/
  8019e4:	e13ffb17 	ldw	r4,-20(fp)
  8019e8:	08055340 	call	805534 <__floatsidf>
  8019ec:	1025883a 	mov	r18,r2
  8019f0:	1827883a 	mov	r19,r3
  8019f4:	e0bffd17 	ldw	r2,-12(fp)
  8019f8:	1007883a 	mov	r3,r2
  8019fc:	e0bffe17 	ldw	r2,-8(fp)
  801a00:	1885883a 	add	r2,r3,r2
  801a04:	10800003 	ldbu	r2,0(r2)
  801a08:	11003fcc 	andi	r4,r2,255
  801a0c:	2100201c 	xori	r4,r4,128
  801a10:	213fe004 	addi	r4,r4,-128
  801a14:	08014500 	call	801450 <atoh>
  801a18:	1009883a 	mov	r4,r2
  801a1c:	08055340 	call	805534 <__floatsidf>
  801a20:	1021883a 	mov	r16,r2
  801a24:	1823883a 	mov	r17,r3
  801a28:	00c00044 	movi	r3,1
  801a2c:	e0bffd17 	ldw	r2,-12(fp)
  801a30:	1889c83a 	sub	r4,r3,r2
  801a34:	08055340 	call	805534 <__floatsidf>
  801a38:	100f883a 	mov	r7,r2
  801a3c:	1811883a 	mov	r8,r3
  801a40:	0009883a 	mov	r4,zero
  801a44:	01500934 	movhi	r5,16420
  801a48:	380d883a 	mov	r6,r7
  801a4c:	400f883a 	mov	r7,r8
  801a50:	080288c0 	call	80288c <pow>
  801a54:	100f883a 	mov	r7,r2
  801a58:	1811883a 	mov	r8,r3
  801a5c:	8009883a 	mov	r4,r16
  801a60:	880b883a 	mov	r5,r17
  801a64:	380d883a 	mov	r6,r7
  801a68:	400f883a 	mov	r7,r8
  801a6c:	0804c700 	call	804c70 <__muldf3>
  801a70:	1009883a 	mov	r4,r2
  801a74:	180b883a 	mov	r5,r3
  801a78:	2005883a 	mov	r2,r4
  801a7c:	2807883a 	mov	r3,r5
  801a80:	9009883a 	mov	r4,r18
  801a84:	980b883a 	mov	r5,r19
  801a88:	100d883a 	mov	r6,r2
  801a8c:	180f883a 	mov	r7,r3
  801a90:	0804bfc0 	call	804bfc <__adddf3>
  801a94:	1009883a 	mov	r4,r2
  801a98:	180b883a 	mov	r5,r3
  801a9c:	2005883a 	mov	r2,r4
  801aa0:	2807883a 	mov	r3,r5
  801aa4:	1009883a 	mov	r4,r2
  801aa8:	180b883a 	mov	r5,r3
  801aac:	080562c0 	call	80562c <__fixdfsi>
  801ab0:	e0bffb15 	stw	r2,-20(fp)
void lat_to_deg(char *pkt_lat, int *lat){
	int j,k;
	int temp;
	temp = 0;
	k = 0;
	for(j=0;j<2;j++){													/*Converts latitude to double value*/
  801ab4:	e0bffd17 	ldw	r2,-12(fp)
  801ab8:	10800044 	addi	r2,r2,1
  801abc:	e0bffd15 	stw	r2,-12(fp)
  801ac0:	e0bffd17 	ldw	r2,-12(fp)
  801ac4:	10800090 	cmplti	r2,r2,2
  801ac8:	103fc61e 	bne	r2,zero,8019e4 <lat_to_deg+0x38>
		temp = temp + (atoh(pkt_lat[j])*pow(10,(1-j)));			/*Reduces power of ten each time through loop*/
	};
	lat[k] = temp;
  801acc:	e0bffc17 	ldw	r2,-16(fp)
  801ad0:	1085883a 	add	r2,r2,r2
  801ad4:	1085883a 	add	r2,r2,r2
  801ad8:	1007883a 	mov	r3,r2
  801adc:	e0bfff17 	ldw	r2,-4(fp)
  801ae0:	1887883a 	add	r3,r3,r2
  801ae4:	e0bffb17 	ldw	r2,-20(fp)
  801ae8:	18800015 	stw	r2,0(r3)
	k++;
  801aec:	e0bffc17 	ldw	r2,-16(fp)
  801af0:	10800044 	addi	r2,r2,1
  801af4:	e0bffc15 	stw	r2,-16(fp)
	temp = 0;
  801af8:	e03ffb15 	stw	zero,-20(fp)
	for(j=0;j<2;j++){
  801afc:	e03ffd15 	stw	zero,-12(fp)
  801b00:	00003706 	br	801be0 <lat_to_deg+0x234>
		temp = temp + atoh(pkt_lat[j+2])*pow(10,(1-j));
  801b04:	e13ffb17 	ldw	r4,-20(fp)
  801b08:	08055340 	call	805534 <__floatsidf>
  801b0c:	1025883a 	mov	r18,r2
  801b10:	1827883a 	mov	r19,r3
  801b14:	e0fffd17 	ldw	r3,-12(fp)
  801b18:	e0bffe17 	ldw	r2,-8(fp)
  801b1c:	1885883a 	add	r2,r3,r2
  801b20:	10800084 	addi	r2,r2,2
  801b24:	10800003 	ldbu	r2,0(r2)
  801b28:	11003fcc 	andi	r4,r2,255
  801b2c:	2100201c 	xori	r4,r4,128
  801b30:	213fe004 	addi	r4,r4,-128
  801b34:	08014500 	call	801450 <atoh>
  801b38:	1009883a 	mov	r4,r2
  801b3c:	08055340 	call	805534 <__floatsidf>
  801b40:	1021883a 	mov	r16,r2
  801b44:	1823883a 	mov	r17,r3
  801b48:	00c00044 	movi	r3,1
  801b4c:	e0bffd17 	ldw	r2,-12(fp)
  801b50:	1889c83a 	sub	r4,r3,r2
  801b54:	08055340 	call	805534 <__floatsidf>
  801b58:	100f883a 	mov	r7,r2
  801b5c:	1811883a 	mov	r8,r3
  801b60:	0009883a 	mov	r4,zero
  801b64:	01500934 	movhi	r5,16420
  801b68:	380d883a 	mov	r6,r7
  801b6c:	400f883a 	mov	r7,r8
  801b70:	080288c0 	call	80288c <pow>
  801b74:	100f883a 	mov	r7,r2
  801b78:	1811883a 	mov	r8,r3
  801b7c:	8009883a 	mov	r4,r16
  801b80:	880b883a 	mov	r5,r17
  801b84:	380d883a 	mov	r6,r7
  801b88:	400f883a 	mov	r7,r8
  801b8c:	0804c700 	call	804c70 <__muldf3>
  801b90:	1009883a 	mov	r4,r2
  801b94:	180b883a 	mov	r5,r3
  801b98:	2005883a 	mov	r2,r4
  801b9c:	2807883a 	mov	r3,r5
  801ba0:	9009883a 	mov	r4,r18
  801ba4:	980b883a 	mov	r5,r19
  801ba8:	100d883a 	mov	r6,r2
  801bac:	180f883a 	mov	r7,r3
  801bb0:	0804bfc0 	call	804bfc <__adddf3>
  801bb4:	1009883a 	mov	r4,r2
  801bb8:	180b883a 	mov	r5,r3
  801bbc:	2005883a 	mov	r2,r4
  801bc0:	2807883a 	mov	r3,r5
  801bc4:	1009883a 	mov	r4,r2
  801bc8:	180b883a 	mov	r5,r3
  801bcc:	080562c0 	call	80562c <__fixdfsi>
  801bd0:	e0bffb15 	stw	r2,-20(fp)
		temp = temp + (atoh(pkt_lat[j])*pow(10,(1-j)));			/*Reduces power of ten each time through loop*/
	};
	lat[k] = temp;
	k++;
	temp = 0;
	for(j=0;j<2;j++){
  801bd4:	e0bffd17 	ldw	r2,-12(fp)
  801bd8:	10800044 	addi	r2,r2,1
  801bdc:	e0bffd15 	stw	r2,-12(fp)
  801be0:	e0bffd17 	ldw	r2,-12(fp)
  801be4:	10800090 	cmplti	r2,r2,2
  801be8:	103fc61e 	bne	r2,zero,801b04 <lat_to_deg+0x158>
		temp = temp + atoh(pkt_lat[j+2])*pow(10,(1-j));
	};
	lat[k] = temp;
  801bec:	e0bffc17 	ldw	r2,-16(fp)
  801bf0:	1085883a 	add	r2,r2,r2
  801bf4:	1085883a 	add	r2,r2,r2
  801bf8:	1007883a 	mov	r3,r2
  801bfc:	e0bfff17 	ldw	r2,-4(fp)
  801c00:	1887883a 	add	r3,r3,r2
  801c04:	e0bffb17 	ldw	r2,-20(fp)
  801c08:	18800015 	stw	r2,0(r3)
	k++;
  801c0c:	e0bffc17 	ldw	r2,-16(fp)
  801c10:	10800044 	addi	r2,r2,1
  801c14:	e0bffc15 	stw	r2,-16(fp)
	temp = 0;
  801c18:	e03ffb15 	stw	zero,-20(fp)
	for(j=0;j<5;j++){
  801c1c:	e03ffd15 	stw	zero,-12(fp)
  801c20:	00003706 	br	801d00 <lat_to_deg+0x354>
		temp = temp + atoh(pkt_lat[j+5])*pow(10,(4-j));
  801c24:	e13ffb17 	ldw	r4,-20(fp)
  801c28:	08055340 	call	805534 <__floatsidf>
  801c2c:	1025883a 	mov	r18,r2
  801c30:	1827883a 	mov	r19,r3
  801c34:	e0fffd17 	ldw	r3,-12(fp)
  801c38:	e0bffe17 	ldw	r2,-8(fp)
  801c3c:	1885883a 	add	r2,r3,r2
  801c40:	10800144 	addi	r2,r2,5
  801c44:	10800003 	ldbu	r2,0(r2)
  801c48:	11003fcc 	andi	r4,r2,255
  801c4c:	2100201c 	xori	r4,r4,128
  801c50:	213fe004 	addi	r4,r4,-128
  801c54:	08014500 	call	801450 <atoh>
  801c58:	1009883a 	mov	r4,r2
  801c5c:	08055340 	call	805534 <__floatsidf>
  801c60:	1021883a 	mov	r16,r2
  801c64:	1823883a 	mov	r17,r3
  801c68:	00c00104 	movi	r3,4
  801c6c:	e0bffd17 	ldw	r2,-12(fp)
  801c70:	1889c83a 	sub	r4,r3,r2
  801c74:	08055340 	call	805534 <__floatsidf>
  801c78:	100f883a 	mov	r7,r2
  801c7c:	1811883a 	mov	r8,r3
  801c80:	0009883a 	mov	r4,zero
  801c84:	01500934 	movhi	r5,16420
  801c88:	380d883a 	mov	r6,r7
  801c8c:	400f883a 	mov	r7,r8
  801c90:	080288c0 	call	80288c <pow>
  801c94:	100f883a 	mov	r7,r2
  801c98:	1811883a 	mov	r8,r3
  801c9c:	8009883a 	mov	r4,r16
  801ca0:	880b883a 	mov	r5,r17
  801ca4:	380d883a 	mov	r6,r7
  801ca8:	400f883a 	mov	r7,r8
  801cac:	0804c700 	call	804c70 <__muldf3>
  801cb0:	1009883a 	mov	r4,r2
  801cb4:	180b883a 	mov	r5,r3
  801cb8:	2005883a 	mov	r2,r4
  801cbc:	2807883a 	mov	r3,r5
  801cc0:	9009883a 	mov	r4,r18
  801cc4:	980b883a 	mov	r5,r19
  801cc8:	100d883a 	mov	r6,r2
  801ccc:	180f883a 	mov	r7,r3
  801cd0:	0804bfc0 	call	804bfc <__adddf3>
  801cd4:	1009883a 	mov	r4,r2
  801cd8:	180b883a 	mov	r5,r3
  801cdc:	2005883a 	mov	r2,r4
  801ce0:	2807883a 	mov	r3,r5
  801ce4:	1009883a 	mov	r4,r2
  801ce8:	180b883a 	mov	r5,r3
  801cec:	080562c0 	call	80562c <__fixdfsi>
  801cf0:	e0bffb15 	stw	r2,-20(fp)
		temp = temp + atoh(pkt_lat[j+2])*pow(10,(1-j));
	};
	lat[k] = temp;
	k++;
	temp = 0;
	for(j=0;j<5;j++){
  801cf4:	e0bffd17 	ldw	r2,-12(fp)
  801cf8:	10800044 	addi	r2,r2,1
  801cfc:	e0bffd15 	stw	r2,-12(fp)
  801d00:	e0bffd17 	ldw	r2,-12(fp)
  801d04:	10800150 	cmplti	r2,r2,5
  801d08:	103fc61e 	bne	r2,zero,801c24 <lat_to_deg+0x278>
		temp = temp + atoh(pkt_lat[j+5])*pow(10,(4-j));
	};
	lat[k] = temp;
  801d0c:	e0bffc17 	ldw	r2,-16(fp)
  801d10:	1085883a 	add	r2,r2,r2
  801d14:	1085883a 	add	r2,r2,r2
  801d18:	1007883a 	mov	r3,r2
  801d1c:	e0bfff17 	ldw	r2,-4(fp)
  801d20:	1887883a 	add	r3,r3,r2
  801d24:	e0bffb17 	ldw	r2,-20(fp)
  801d28:	18800015 	stw	r2,0(r3)
	k++;
  801d2c:	e0bffc17 	ldw	r2,-16(fp)
  801d30:	10800044 	addi	r2,r2,1
  801d34:	e0bffc15 	stw	r2,-16(fp)
	return;
}
  801d38:	e037883a 	mov	sp,fp
  801d3c:	dfc00517 	ldw	ra,20(sp)
  801d40:	df000417 	ldw	fp,16(sp)
  801d44:	dcc00317 	ldw	r19,12(sp)
  801d48:	dc800217 	ldw	r18,8(sp)
  801d4c:	dc400117 	ldw	r17,4(sp)
  801d50:	dc000017 	ldw	r16,0(sp)
  801d54:	dec00604 	addi	sp,sp,24
  801d58:	f800283a 	ret

00801d5c <long_to_deg>:

void long_to_deg(char *pkt_long, int *lon){
  801d5c:	defff504 	addi	sp,sp,-44
  801d60:	dfc00a15 	stw	ra,40(sp)
  801d64:	df000915 	stw	fp,36(sp)
  801d68:	dcc00815 	stw	r19,32(sp)
  801d6c:	dc800715 	stw	r18,28(sp)
  801d70:	dc400615 	stw	r17,24(sp)
  801d74:	dc000515 	stw	r16,20(sp)
  801d78:	df000504 	addi	fp,sp,20
  801d7c:	e13ffe15 	stw	r4,-8(fp)
  801d80:	e17fff15 	stw	r5,-4(fp)
	int j,k;
	int temp;
	temp = 0;
  801d84:	e03ffb15 	stw	zero,-20(fp)
	k = 0;
  801d88:	e03ffc15 	stw	zero,-16(fp)
	for(j=0;j<3;j++){													/*Converts latitude to double value*/
  801d8c:	e03ffd15 	stw	zero,-12(fp)
  801d90:	00003706 	br	801e70 <long_to_deg+0x114>
		temp = temp + (atoh(pkt_long[j])*pow(10,(2-j)));			/*Reduces power of ten each time through loop*/
  801d94:	e13ffb17 	ldw	r4,-20(fp)
  801d98:	08055340 	call	805534 <__floatsidf>
  801d9c:	1025883a 	mov	r18,r2
  801da0:	1827883a 	mov	r19,r3
  801da4:	e0bffd17 	ldw	r2,-12(fp)
  801da8:	1007883a 	mov	r3,r2
  801dac:	e0bffe17 	ldw	r2,-8(fp)
  801db0:	1885883a 	add	r2,r3,r2
  801db4:	10800003 	ldbu	r2,0(r2)
  801db8:	11003fcc 	andi	r4,r2,255
  801dbc:	2100201c 	xori	r4,r4,128
  801dc0:	213fe004 	addi	r4,r4,-128
  801dc4:	08014500 	call	801450 <atoh>
  801dc8:	1009883a 	mov	r4,r2
  801dcc:	08055340 	call	805534 <__floatsidf>
  801dd0:	1021883a 	mov	r16,r2
  801dd4:	1823883a 	mov	r17,r3
  801dd8:	00c00084 	movi	r3,2
  801ddc:	e0bffd17 	ldw	r2,-12(fp)
  801de0:	1889c83a 	sub	r4,r3,r2
  801de4:	08055340 	call	805534 <__floatsidf>
  801de8:	100f883a 	mov	r7,r2
  801dec:	1811883a 	mov	r8,r3
  801df0:	0009883a 	mov	r4,zero
  801df4:	01500934 	movhi	r5,16420
  801df8:	380d883a 	mov	r6,r7
  801dfc:	400f883a 	mov	r7,r8
  801e00:	080288c0 	call	80288c <pow>
  801e04:	100f883a 	mov	r7,r2
  801e08:	1811883a 	mov	r8,r3
  801e0c:	8009883a 	mov	r4,r16
  801e10:	880b883a 	mov	r5,r17
  801e14:	380d883a 	mov	r6,r7
  801e18:	400f883a 	mov	r7,r8
  801e1c:	0804c700 	call	804c70 <__muldf3>
  801e20:	1009883a 	mov	r4,r2
  801e24:	180b883a 	mov	r5,r3
  801e28:	2005883a 	mov	r2,r4
  801e2c:	2807883a 	mov	r3,r5
  801e30:	9009883a 	mov	r4,r18
  801e34:	980b883a 	mov	r5,r19
  801e38:	100d883a 	mov	r6,r2
  801e3c:	180f883a 	mov	r7,r3
  801e40:	0804bfc0 	call	804bfc <__adddf3>
  801e44:	1009883a 	mov	r4,r2
  801e48:	180b883a 	mov	r5,r3
  801e4c:	2005883a 	mov	r2,r4
  801e50:	2807883a 	mov	r3,r5
  801e54:	1009883a 	mov	r4,r2
  801e58:	180b883a 	mov	r5,r3
  801e5c:	080562c0 	call	80562c <__fixdfsi>
  801e60:	e0bffb15 	stw	r2,-20(fp)
void long_to_deg(char *pkt_long, int *lon){
	int j,k;
	int temp;
	temp = 0;
	k = 0;
	for(j=0;j<3;j++){													/*Converts latitude to double value*/
  801e64:	e0bffd17 	ldw	r2,-12(fp)
  801e68:	10800044 	addi	r2,r2,1
  801e6c:	e0bffd15 	stw	r2,-12(fp)
  801e70:	e0bffd17 	ldw	r2,-12(fp)
  801e74:	108000d0 	cmplti	r2,r2,3
  801e78:	103fc61e 	bne	r2,zero,801d94 <long_to_deg+0x38>
		temp = temp + (atoh(pkt_long[j])*pow(10,(2-j)));			/*Reduces power of ten each time through loop*/
	};
	lon[k] = temp;
  801e7c:	e0bffc17 	ldw	r2,-16(fp)
  801e80:	1085883a 	add	r2,r2,r2
  801e84:	1085883a 	add	r2,r2,r2
  801e88:	1007883a 	mov	r3,r2
  801e8c:	e0bfff17 	ldw	r2,-4(fp)
  801e90:	1887883a 	add	r3,r3,r2
  801e94:	e0bffb17 	ldw	r2,-20(fp)
  801e98:	18800015 	stw	r2,0(r3)
	k++;
  801e9c:	e0bffc17 	ldw	r2,-16(fp)
  801ea0:	10800044 	addi	r2,r2,1
  801ea4:	e0bffc15 	stw	r2,-16(fp)
	temp = 0;
  801ea8:	e03ffb15 	stw	zero,-20(fp)
	for(j=0;j<2;j++){
  801eac:	e03ffd15 	stw	zero,-12(fp)
  801eb0:	00003706 	br	801f90 <long_to_deg+0x234>
		temp = temp + atoh(pkt_long[j+3])*pow(10,(1-j));
  801eb4:	e13ffb17 	ldw	r4,-20(fp)
  801eb8:	08055340 	call	805534 <__floatsidf>
  801ebc:	1025883a 	mov	r18,r2
  801ec0:	1827883a 	mov	r19,r3
  801ec4:	e0fffd17 	ldw	r3,-12(fp)
  801ec8:	e0bffe17 	ldw	r2,-8(fp)
  801ecc:	1885883a 	add	r2,r3,r2
  801ed0:	108000c4 	addi	r2,r2,3
  801ed4:	10800003 	ldbu	r2,0(r2)
  801ed8:	11003fcc 	andi	r4,r2,255
  801edc:	2100201c 	xori	r4,r4,128
  801ee0:	213fe004 	addi	r4,r4,-128
  801ee4:	08014500 	call	801450 <atoh>
  801ee8:	1009883a 	mov	r4,r2
  801eec:	08055340 	call	805534 <__floatsidf>
  801ef0:	1021883a 	mov	r16,r2
  801ef4:	1823883a 	mov	r17,r3
  801ef8:	00c00044 	movi	r3,1
  801efc:	e0bffd17 	ldw	r2,-12(fp)
  801f00:	1889c83a 	sub	r4,r3,r2
  801f04:	08055340 	call	805534 <__floatsidf>
  801f08:	100f883a 	mov	r7,r2
  801f0c:	1811883a 	mov	r8,r3
  801f10:	0009883a 	mov	r4,zero
  801f14:	01500934 	movhi	r5,16420
  801f18:	380d883a 	mov	r6,r7
  801f1c:	400f883a 	mov	r7,r8
  801f20:	080288c0 	call	80288c <pow>
  801f24:	100f883a 	mov	r7,r2
  801f28:	1811883a 	mov	r8,r3
  801f2c:	8009883a 	mov	r4,r16
  801f30:	880b883a 	mov	r5,r17
  801f34:	380d883a 	mov	r6,r7
  801f38:	400f883a 	mov	r7,r8
  801f3c:	0804c700 	call	804c70 <__muldf3>
  801f40:	1009883a 	mov	r4,r2
  801f44:	180b883a 	mov	r5,r3
  801f48:	2005883a 	mov	r2,r4
  801f4c:	2807883a 	mov	r3,r5
  801f50:	9009883a 	mov	r4,r18
  801f54:	980b883a 	mov	r5,r19
  801f58:	100d883a 	mov	r6,r2
  801f5c:	180f883a 	mov	r7,r3
  801f60:	0804bfc0 	call	804bfc <__adddf3>
  801f64:	1009883a 	mov	r4,r2
  801f68:	180b883a 	mov	r5,r3
  801f6c:	2005883a 	mov	r2,r4
  801f70:	2807883a 	mov	r3,r5
  801f74:	1009883a 	mov	r4,r2
  801f78:	180b883a 	mov	r5,r3
  801f7c:	080562c0 	call	80562c <__fixdfsi>
  801f80:	e0bffb15 	stw	r2,-20(fp)
		temp = temp + (atoh(pkt_long[j])*pow(10,(2-j)));			/*Reduces power of ten each time through loop*/
	};
	lon[k] = temp;
	k++;
	temp = 0;
	for(j=0;j<2;j++){
  801f84:	e0bffd17 	ldw	r2,-12(fp)
  801f88:	10800044 	addi	r2,r2,1
  801f8c:	e0bffd15 	stw	r2,-12(fp)
  801f90:	e0bffd17 	ldw	r2,-12(fp)
  801f94:	10800090 	cmplti	r2,r2,2
  801f98:	103fc61e 	bne	r2,zero,801eb4 <long_to_deg+0x158>
		temp = temp + atoh(pkt_long[j+3])*pow(10,(1-j));
	};
	lon[k] = temp;
  801f9c:	e0bffc17 	ldw	r2,-16(fp)
  801fa0:	1085883a 	add	r2,r2,r2
  801fa4:	1085883a 	add	r2,r2,r2
  801fa8:	1007883a 	mov	r3,r2
  801fac:	e0bfff17 	ldw	r2,-4(fp)
  801fb0:	1887883a 	add	r3,r3,r2
  801fb4:	e0bffb17 	ldw	r2,-20(fp)
  801fb8:	18800015 	stw	r2,0(r3)
	k++;
  801fbc:	e0bffc17 	ldw	r2,-16(fp)
  801fc0:	10800044 	addi	r2,r2,1
  801fc4:	e0bffc15 	stw	r2,-16(fp)
	temp = 0;
  801fc8:	e03ffb15 	stw	zero,-20(fp)
	for(j=0;j<5;j++){
  801fcc:	e03ffd15 	stw	zero,-12(fp)
  801fd0:	00003706 	br	8020b0 <long_to_deg+0x354>
		temp = temp + atoh(pkt_long[j+6])*pow(10,(4-j));
  801fd4:	e13ffb17 	ldw	r4,-20(fp)
  801fd8:	08055340 	call	805534 <__floatsidf>
  801fdc:	1025883a 	mov	r18,r2
  801fe0:	1827883a 	mov	r19,r3
  801fe4:	e0fffd17 	ldw	r3,-12(fp)
  801fe8:	e0bffe17 	ldw	r2,-8(fp)
  801fec:	1885883a 	add	r2,r3,r2
  801ff0:	10800184 	addi	r2,r2,6
  801ff4:	10800003 	ldbu	r2,0(r2)
  801ff8:	11003fcc 	andi	r4,r2,255
  801ffc:	2100201c 	xori	r4,r4,128
  802000:	213fe004 	addi	r4,r4,-128
  802004:	08014500 	call	801450 <atoh>
  802008:	1009883a 	mov	r4,r2
  80200c:	08055340 	call	805534 <__floatsidf>
  802010:	1021883a 	mov	r16,r2
  802014:	1823883a 	mov	r17,r3
  802018:	00c00104 	movi	r3,4
  80201c:	e0bffd17 	ldw	r2,-12(fp)
  802020:	1889c83a 	sub	r4,r3,r2
  802024:	08055340 	call	805534 <__floatsidf>
  802028:	100f883a 	mov	r7,r2
  80202c:	1811883a 	mov	r8,r3
  802030:	0009883a 	mov	r4,zero
  802034:	01500934 	movhi	r5,16420
  802038:	380d883a 	mov	r6,r7
  80203c:	400f883a 	mov	r7,r8
  802040:	080288c0 	call	80288c <pow>
  802044:	100f883a 	mov	r7,r2
  802048:	1811883a 	mov	r8,r3
  80204c:	8009883a 	mov	r4,r16
  802050:	880b883a 	mov	r5,r17
  802054:	380d883a 	mov	r6,r7
  802058:	400f883a 	mov	r7,r8
  80205c:	0804c700 	call	804c70 <__muldf3>
  802060:	1009883a 	mov	r4,r2
  802064:	180b883a 	mov	r5,r3
  802068:	2005883a 	mov	r2,r4
  80206c:	2807883a 	mov	r3,r5
  802070:	9009883a 	mov	r4,r18
  802074:	980b883a 	mov	r5,r19
  802078:	100d883a 	mov	r6,r2
  80207c:	180f883a 	mov	r7,r3
  802080:	0804bfc0 	call	804bfc <__adddf3>
  802084:	1009883a 	mov	r4,r2
  802088:	180b883a 	mov	r5,r3
  80208c:	2005883a 	mov	r2,r4
  802090:	2807883a 	mov	r3,r5
  802094:	1009883a 	mov	r4,r2
  802098:	180b883a 	mov	r5,r3
  80209c:	080562c0 	call	80562c <__fixdfsi>
  8020a0:	e0bffb15 	stw	r2,-20(fp)
		temp = temp + atoh(pkt_long[j+3])*pow(10,(1-j));
	};
	lon[k] = temp;
	k++;
	temp = 0;
	for(j=0;j<5;j++){
  8020a4:	e0bffd17 	ldw	r2,-12(fp)
  8020a8:	10800044 	addi	r2,r2,1
  8020ac:	e0bffd15 	stw	r2,-12(fp)
  8020b0:	e0bffd17 	ldw	r2,-12(fp)
  8020b4:	10800150 	cmplti	r2,r2,5
  8020b8:	103fc61e 	bne	r2,zero,801fd4 <long_to_deg+0x278>
		temp = temp + atoh(pkt_long[j+6])*pow(10,(4-j));
	};
	lon[k] = temp;
  8020bc:	e0bffc17 	ldw	r2,-16(fp)
  8020c0:	1085883a 	add	r2,r2,r2
  8020c4:	1085883a 	add	r2,r2,r2
  8020c8:	1007883a 	mov	r3,r2
  8020cc:	e0bfff17 	ldw	r2,-4(fp)
  8020d0:	1887883a 	add	r3,r3,r2
  8020d4:	e0bffb17 	ldw	r2,-20(fp)
  8020d8:	18800015 	stw	r2,0(r3)
	k++;
  8020dc:	e0bffc17 	ldw	r2,-16(fp)
  8020e0:	10800044 	addi	r2,r2,1
  8020e4:	e0bffc15 	stw	r2,-16(fp)
	return;
}
  8020e8:	e037883a 	mov	sp,fp
  8020ec:	dfc00517 	ldw	ra,20(sp)
  8020f0:	df000417 	ldw	fp,16(sp)
  8020f4:	dcc00317 	ldw	r19,12(sp)
  8020f8:	dc800217 	ldw	r18,8(sp)
  8020fc:	dc400117 	ldw	r17,4(sp)
  802100:	dc000017 	ldw	r16,0(sp)
  802104:	dec00604 	addi	sp,sp,24
  802108:	f800283a 	ret

0080210c <WriteLCD>:
 * Note: ensure the fopen command is accessing the proper lcd driver name!
 *
 ******************************************************************************/

static void WriteLCD(char *msg)
{
  80210c:	defffc04 	addi	sp,sp,-16
  802110:	dfc00315 	stw	ra,12(sp)
  802114:	df000215 	stw	fp,8(sp)
  802118:	df000204 	addi	fp,sp,8
  80211c:	e13fff15 	stw	r4,-4(fp)
  FILE *lcd;

  lcd = fopen("/dev/lcd_0", "w");
  802120:	010020b4 	movhi	r4,130
  802124:	2132a004 	addi	r4,r4,-13696
  802128:	014020b4 	movhi	r5,130
  80212c:	2972a304 	addi	r5,r5,-13684
  802130:	08064800 	call	806480 <fopen>
  802134:	e0bffe15 	stw	r2,-8(fp)

  /* Write some simple text to the LCD. */
  if (lcd != NULL )
  802138:	e0bffe17 	ldw	r2,-8(fp)
  80213c:	1005003a 	cmpeq	r2,r2,zero
  802140:	1000051e 	bne	r2,zero,802158 <WriteLCD+0x4c>
  {
    fprintf(lcd, "%s\n", msg);
  802144:	e13ffe17 	ldw	r4,-8(fp)
  802148:	014020b4 	movhi	r5,130
  80214c:	2972a404 	addi	r5,r5,-13680
  802150:	e1bfff17 	ldw	r6,-4(fp)
  802154:	080649c0 	call	80649c <fprintf>
  }

  fclose( lcd );
  802158:	e13ffe17 	ldw	r4,-8(fp)
  80215c:	0805e880 	call	805e88 <fclose>

  return;
}
  802160:	e037883a 	mov	sp,fp
  802164:	dfc00117 	ldw	ra,4(sp)
  802168:	df000017 	ldw	fp,0(sp)
  80216c:	dec00204 	addi	sp,sp,8
  802170:	f800283a 	ret

00802174 <task1>:
int longitude[3] = {0, 0, 0};
int j;

/* Populates pkt string with GPS data, sleeps for 750 ms */
void task1(void* pdata)
{
  802174:	defffd04 	addi	sp,sp,-12
  802178:	dfc00215 	stw	ra,8(sp)
  80217c:	df000115 	stw	fp,4(sp)
  802180:	df000104 	addi	fp,sp,4
  802184:	e13fff15 	stw	r4,-4(fp)
  while (1)
  {
	  OSSemPend(data_packet_sem, 0, &return_code);
  802188:	d1277717 	ldw	r4,-25124(gp)
  80218c:	000b883a 	mov	r5,zero
  802190:	d1a77804 	addi	r6,gp,-25120
  802194:	0815d0c0 	call	815d0c <OSSemPend>
	  alt_ucosii_check_return_code(return_code);
  802198:	d0a77803 	ldbu	r2,-25120(gp)
  80219c:	11003fcc 	andi	r4,r2,255
  8021a0:	08001f80 	call	8001f8 <alt_ucosii_check_return_code>
	  test=getchar();																		/* Gets first character from serial stream              */
  8021a4:	008020b4 	movhi	r2,130
  8021a8:	10bb9f04 	addi	r2,r2,-4484
  8021ac:	10800017 	ldw	r2,0(r2)
  8021b0:	11000117 	ldw	r4,4(r2)
  8021b4:	080706c0 	call	80706c <getc>
  8021b8:	d0a77505 	stb	r2,-25132(gp)

	  while(checksum(test,cs,pkt) != 1){													/* Runs checksum function over until good packet found  */
  8021bc:	00000606 	br	8021d8 <task1+0x64>
		  test = getchar();																	/* Gets new character from checksum    					*/
  8021c0:	008020b4 	movhi	r2,130
  8021c4:	10bb9f04 	addi	r2,r2,-4484
  8021c8:	10800017 	ldw	r2,0(r2)
  8021cc:	11000117 	ldw	r4,4(r2)
  8021d0:	080706c0 	call	80706c <getc>
  8021d4:	d0a77505 	stb	r2,-25132(gp)
  {
	  OSSemPend(data_packet_sem, 0, &return_code);
	  alt_ucosii_check_return_code(return_code);
	  test=getchar();																		/* Gets first character from serial stream              */

	  while(checksum(test,cs,pkt) != 1){													/* Runs checksum function over until good packet found  */
  8021d8:	d0a77503 	ldbu	r2,-25132(gp)
  8021dc:	11003fcc 	andi	r4,r2,255
  8021e0:	2100201c 	xori	r4,r4,128
  8021e4:	213fe004 	addi	r4,r4,-128
  8021e8:	d0a77303 	ldbu	r2,-25140(gp)
  8021ec:	11403fcc 	andi	r5,r2,255
  8021f0:	2940201c 	xori	r5,r5,128
  8021f4:	297fe004 	addi	r5,r5,-128
  8021f8:	018020b4 	movhi	r6,130
  8021fc:	318b66c4 	addi	r6,r6,11675
  802200:	08006e80 	call	8006e8 <checksum>
  802204:	10800058 	cmpnei	r2,r2,1
  802208:	103fed1e 	bne	r2,zero,8021c0 <task1+0x4c>
		  test = getchar();																	/* Gets new character from checksum    					*/
	  }

	  parse_GGA(pkt, &packet_GGA);
  80220c:	010020b4 	movhi	r4,130
  802210:	210b66c4 	addi	r4,r4,11675
  802214:	014020b4 	movhi	r5,130
  802218:	294b5404 	addi	r5,r5,11600
  80221c:	0800a400 	call	800a40 <parse_GGA>

	  OSSemPost(data_packet_sem);															/* Loop exits once packet is found; semaphore signal    */
  802220:	d1277717 	ldw	r4,-25124(gp)
  802224:	08161040 	call	816104 <OSSemPost>
	  OSTimeDlyHMSM(0, 0, 0, 500);
  802228:	0009883a 	mov	r4,zero
  80222c:	000b883a 	mov	r5,zero
  802230:	000d883a 	mov	r6,zero
  802234:	01c07d04 	movi	r7,500
  802238:	0817fec0 	call	817fec <OSTimeDlyHMSM>
  }
  80223c:	003fd206 	br	802188 <task1+0x14>

00802240 <task2>:
}

/* Parses GPS Packet, prints to LCD, sleeps for 500ms */
void task2(void* pdata)
{
  802240:	defffb04 	addi	sp,sp,-20
  802244:	dfc00415 	stw	ra,16(sp)
  802248:	df000315 	stw	fp,12(sp)
  80224c:	df000304 	addi	fp,sp,12
  802250:	e13fff15 	stw	r4,-4(fp)
  while (1)
  {
	  OSSemPend(data_packet_sem, 0, &return_code);
  802254:	d1277717 	ldw	r4,-25124(gp)
  802258:	000b883a 	mov	r5,zero
  80225c:	d1a77804 	addi	r6,gp,-25120
  802260:	0815d0c0 	call	815d0c <OSSemPend>
	  alt_ucosii_check_return_code(return_code);
  802264:	d0a77803 	ldbu	r2,-25120(gp)
  802268:	11003fcc 	andi	r4,r2,255
  80226c:	08001f80 	call	8001f8 <alt_ucosii_check_return_code>
	  default:
		  break;
	  };
	  */

	  if (temp == 4){
  802270:	d0a77417 	ldw	r2,-25136(gp)
  802274:	10800118 	cmpnei	r2,r2,4
  802278:	1000121e 	bne	r2,zero,8022c4 <task2+0x84>
		  sprintf(print, "PWM1: %d", pwm1);
  80227c:	d1a77017 	ldw	r6,-25152(gp)
  802280:	010020b4 	movhi	r4,130
  802284:	21349204 	addi	r4,r4,-11704
  802288:	014020b4 	movhi	r5,130
  80228c:	2972a504 	addi	r5,r5,-13676
  802290:	0807f780 	call	807f78 <sprintf>
		  WriteLCD(print);
  802294:	010020b4 	movhi	r4,130
  802298:	21349204 	addi	r4,r4,-11704
  80229c:	080210c0 	call	80210c <WriteLCD>
		  sprintf(print, "PWM2: %d", pwm2);
  8022a0:	d1a77217 	ldw	r6,-25144(gp)
  8022a4:	010020b4 	movhi	r4,130
  8022a8:	21349204 	addi	r4,r4,-11704
  8022ac:	014020b4 	movhi	r5,130
  8022b0:	2972a804 	addi	r5,r5,-13664
  8022b4:	0807f780 	call	807f78 <sprintf>
		  WriteLCD(print);
  8022b8:	010020b4 	movhi	r4,130
  8022bc:	21349204 	addi	r4,r4,-11704
  8022c0:	080210c0 	call	80210c <WriteLCD>
	  };

	  if (temp == 2){
  8022c4:	d0a77417 	ldw	r2,-25136(gp)
  8022c8:	10800098 	cmpnei	r2,r2,2
  8022cc:	1000201e 	bne	r2,zero,802350 <task2+0x110>
		  sprintf(print, "Lat:%s%c", packet_GGA.latitude, packet_GGA.ns[0]);
  8022d0:	008020b4 	movhi	r2,130
  8022d4:	108b5404 	addi	r2,r2,11600
  8022d8:	10800703 	ldbu	r2,28(r2)
  8022dc:	11c03fcc 	andi	r7,r2,255
  8022e0:	39c0201c 	xori	r7,r7,128
  8022e4:	39ffe004 	addi	r7,r7,-128
  8022e8:	010020b4 	movhi	r4,130
  8022ec:	21349204 	addi	r4,r4,-11704
  8022f0:	014020b4 	movhi	r5,130
  8022f4:	2972ab04 	addi	r5,r5,-13652
  8022f8:	018020b4 	movhi	r6,130
  8022fc:	318b5804 	addi	r6,r6,11616
  802300:	0807f780 	call	807f78 <sprintf>
		  WriteLCD(print);
  802304:	010020b4 	movhi	r4,130
  802308:	21349204 	addi	r4,r4,-11704
  80230c:	080210c0 	call	80210c <WriteLCD>
		  sprintf(print, "Lon:%s%c", packet_GGA.longitude, packet_GGA.ew[0]);
  802310:	008020b4 	movhi	r2,130
  802314:	108b5404 	addi	r2,r2,11600
  802318:	10800a83 	ldbu	r2,42(r2)
  80231c:	11c03fcc 	andi	r7,r2,255
  802320:	39c0201c 	xori	r7,r7,128
  802324:	39ffe004 	addi	r7,r7,-128
  802328:	010020b4 	movhi	r4,130
  80232c:	21349204 	addi	r4,r4,-11704
  802330:	014020b4 	movhi	r5,130
  802334:	2972ae04 	addi	r5,r5,-13640
  802338:	018020b4 	movhi	r6,130
  80233c:	318b5b84 	addi	r6,r6,11630
  802340:	0807f780 	call	807f78 <sprintf>
		  WriteLCD(print);
  802344:	010020b4 	movhi	r4,130
  802348:	21349204 	addi	r4,r4,-11704
  80234c:	080210c0 	call	80210c <WriteLCD>
	  };

	  if (temp == 1){
  802350:	d0a77417 	ldw	r2,-25136(gp)
  802354:	10800058 	cmpnei	r2,r2,1
  802358:	1000341e 	bne	r2,zero,80242c <task2+0x1ec>
		  aorp = GMT_to_MST(time, packet_GGA.time);
  80235c:	010020b4 	movhi	r4,130
  802360:	21034104 	addi	r4,r4,3332
  802364:	014020b4 	movhi	r5,130
  802368:	294b5584 	addi	r5,r5,11606
  80236c:	08015cc0 	call	8015cc <GMT_to_MST>
  802370:	d0a77c05 	stb	r2,-25104(gp)
		  sprintf(print, "Time: %d:%02d:%02d%cM", time[0], time[1], time[2], aorp);
  802374:	008020b4 	movhi	r2,130
  802378:	10834104 	addi	r2,r2,3332
  80237c:	11800017 	ldw	r6,0(r2)
  802380:	008020b4 	movhi	r2,130
  802384:	10834104 	addi	r2,r2,3332
  802388:	11c00117 	ldw	r7,4(r2)
  80238c:	008020b4 	movhi	r2,130
  802390:	10834104 	addi	r2,r2,3332
  802394:	10c00217 	ldw	r3,8(r2)
  802398:	d0a77c03 	ldbu	r2,-25104(gp)
  80239c:	10803fcc 	andi	r2,r2,255
  8023a0:	1080201c 	xori	r2,r2,128
  8023a4:	10bfe004 	addi	r2,r2,-128
  8023a8:	d8c00015 	stw	r3,0(sp)
  8023ac:	d8800115 	stw	r2,4(sp)
  8023b0:	010020b4 	movhi	r4,130
  8023b4:	21349204 	addi	r4,r4,-11704
  8023b8:	014020b4 	movhi	r5,130
  8023bc:	2972b104 	addi	r5,r5,-13628
  8023c0:	0807f780 	call	807f78 <sprintf>
		  WriteLCD(print);
  8023c4:	010020b4 	movhi	r4,130
  8023c8:	21349204 	addi	r4,r4,-11704
  8023cc:	080210c0 	call	80210c <WriteLCD>
		  height = m_to_ft(packet_GGA.ant_ht);
  8023d0:	010020b4 	movhi	r4,130
  8023d4:	210b6184 	addi	r4,r4,11654
  8023d8:	08018140 	call	801814 <m_to_ft>
  8023dc:	1009883a 	mov	r4,r2
  8023e0:	180b883a 	mov	r5,r3
  8023e4:	d1277a15 	stw	r4,-25112(gp)
  8023e8:	008020b4 	movhi	r2,130
  8023ec:	10831904 	addi	r2,r2,3172
  8023f0:	11400015 	stw	r5,0(r2)
		  sprintf(print, "Elev: %5.2f ft", height);
  8023f4:	d0a77a17 	ldw	r2,-25112(gp)
  8023f8:	010020b4 	movhi	r4,130
  8023fc:	21031904 	addi	r4,r4,3172
  802400:	20c00017 	ldw	r3,0(r4)
  802404:	010020b4 	movhi	r4,130
  802408:	21349204 	addi	r4,r4,-11704
  80240c:	014020b4 	movhi	r5,130
  802410:	2972b704 	addi	r5,r5,-13604
  802414:	100d883a 	mov	r6,r2
  802418:	180f883a 	mov	r7,r3
  80241c:	0807f780 	call	807f78 <sprintf>
		  WriteLCD(print);
  802420:	010020b4 	movhi	r4,130
  802424:	21349204 	addi	r4,r4,-11704
  802428:	080210c0 	call	80210c <WriteLCD>
	  };

	  OSSemPost(data_packet_sem);
  80242c:	d1277717 	ldw	r4,-25124(gp)
  802430:	08161040 	call	816104 <OSSemPost>
	  OSTimeDlyHMSM(0, 0, 0, 500);
  802434:	0009883a 	mov	r4,zero
  802438:	000b883a 	mov	r5,zero
  80243c:	000d883a 	mov	r6,zero
  802440:	01c07d04 	movi	r7,500
  802444:	0817fec0 	call	817fec <OSTimeDlyHMSM>
  }
  802448:	003f8206 	br	802254 <task2+0x14>

0080244c <task3>:
}

/* Updates PWM1 value every 1/2 second */
void task3(void* pdata)
{
  80244c:	defffd04 	addi	sp,sp,-12
  802450:	dfc00215 	stw	ra,8(sp)
  802454:	df000115 	stw	fp,4(sp)
  802458:	df000104 	addi	fp,sp,4
  80245c:	e13fff15 	stw	r4,-4(fp)
  while (1)
  {
	  return_code = OS_NO_ERR;
  802460:	d0277805 	stb	zero,-25120(gp)
	  alt_ucosii_check_return_code(return_code);
  802464:	d0a77803 	ldbu	r2,-25120(gp)
  802468:	11003fcc 	andi	r4,r2,255
  80246c:	08001f80 	call	8001f8 <alt_ucosii_check_return_code>

	  if(pwm1 == 120){
  802470:	d0a77017 	ldw	r2,-25152(gp)
  802474:	10801e18 	cmpnei	r2,r2,120
  802478:	1000021e 	bne	r2,zero,802484 <task3+0x38>
		  temp_inc1 = -10;
  80247c:	00bffd84 	movi	r2,-10
  802480:	d0a77615 	stw	r2,-25128(gp)
	  }
	  if(pwm1 == -120){
  802484:	d0a77017 	ldw	r2,-25152(gp)
  802488:	10bfe218 	cmpnei	r2,r2,-120
  80248c:	1000021e 	bne	r2,zero,802498 <task3+0x4c>
		  temp_inc1 = 10;
  802490:	00800284 	movi	r2,10
  802494:	d0a77615 	stw	r2,-25128(gp)
	  }

	  *PWM1_CTRL = pwm1 + temp_inc1;
  802498:	01004034 	movhi	r4,256
  80249c:	21041004 	addi	r4,r4,4160
  8024a0:	d0e77017 	ldw	r3,-25152(gp)
  8024a4:	d0a77617 	ldw	r2,-25128(gp)
  8024a8:	1885883a 	add	r2,r3,r2
  8024ac:	20800015 	stw	r2,0(r4)
	  pwm1 = pwm1 + temp_inc1;
  8024b0:	d0e77017 	ldw	r3,-25152(gp)
  8024b4:	d0a77617 	ldw	r2,-25128(gp)
  8024b8:	1885883a 	add	r2,r3,r2
  8024bc:	d0a77015 	stw	r2,-25152(gp)

	  OSTimeDlyHMSM(0, 0, 0, 500);
  8024c0:	0009883a 	mov	r4,zero
  8024c4:	000b883a 	mov	r5,zero
  8024c8:	000d883a 	mov	r6,zero
  8024cc:	01c07d04 	movi	r7,500
  8024d0:	0817fec0 	call	817fec <OSTimeDlyHMSM>
  }
  8024d4:	003fe206 	br	802460 <task3+0x14>

008024d8 <task4>:
}

/* Updates PWM2 value every 1/3 second */
void task4(void* pdata)
{
  8024d8:	defffd04 	addi	sp,sp,-12
  8024dc:	dfc00215 	stw	ra,8(sp)
  8024e0:	df000115 	stw	fp,4(sp)
  8024e4:	df000104 	addi	fp,sp,4
  8024e8:	e13fff15 	stw	r4,-4(fp)
  while (1)
  {
	  return_code = OS_NO_ERR;
  8024ec:	d0277805 	stb	zero,-25120(gp)
	  alt_ucosii_check_return_code(return_code);
  8024f0:	d0a77803 	ldbu	r2,-25120(gp)
  8024f4:	11003fcc 	andi	r4,r2,255
  8024f8:	08001f80 	call	8001f8 <alt_ucosii_check_return_code>

	  if(pwm2 == 120){
  8024fc:	d0a77217 	ldw	r2,-25144(gp)
  802500:	10801e18 	cmpnei	r2,r2,120
  802504:	1000021e 	bne	r2,zero,802510 <task4+0x38>
		  temp_inc2 = -10;
  802508:	00bffd84 	movi	r2,-10
  80250c:	d0a77915 	stw	r2,-25116(gp)
	  }
	  if(pwm2 == -120){
  802510:	d0a77217 	ldw	r2,-25144(gp)
  802514:	10bfe218 	cmpnei	r2,r2,-120
  802518:	1000021e 	bne	r2,zero,802524 <task4+0x4c>
		  temp_inc2 = 10;
  80251c:	00800284 	movi	r2,10
  802520:	d0a77915 	stw	r2,-25116(gp)
	  }

	  *PWM2_CTRL = pwm2 + temp_inc2;
  802524:	01004034 	movhi	r4,256
  802528:	21041804 	addi	r4,r4,4192
  80252c:	d0e77217 	ldw	r3,-25144(gp)
  802530:	d0a77917 	ldw	r2,-25116(gp)
  802534:	1885883a 	add	r2,r3,r2
  802538:	20800015 	stw	r2,0(r4)
	  pwm2 = pwm2 + temp_inc2;
  80253c:	d0e77217 	ldw	r3,-25144(gp)
  802540:	d0a77917 	ldw	r2,-25116(gp)
  802544:	1885883a 	add	r2,r3,r2
  802548:	d0a77215 	stw	r2,-25144(gp)

	  OSTimeDlyHMSM(0, 0, 0, 330);
  80254c:	0009883a 	mov	r4,zero
  802550:	000b883a 	mov	r5,zero
  802554:	000d883a 	mov	r6,zero
  802558:	01c05284 	movi	r7,330
  80255c:	0817fec0 	call	817fec <OSTimeDlyHMSM>
  }
  802560:	003fe206 	br	8024ec <task4+0x14>

00802564 <task5>:
}

/* Tests state of switches; updates switch and LED values*/
void task5(void* pdata)
{
  802564:	defffd04 	addi	sp,sp,-12
  802568:	dfc00215 	stw	ra,8(sp)
  80256c:	df000115 	stw	fp,4(sp)
  802570:	df000104 	addi	fp,sp,4
  802574:	e13fff15 	stw	r4,-4(fp)
  while (1)
  {
	  *LEDs = *Switches;
  802578:	00c04034 	movhi	r3,256
  80257c:	18c42004 	addi	r3,r3,4224
  802580:	00804034 	movhi	r2,256
  802584:	10842404 	addi	r2,r2,4240
  802588:	10800017 	ldw	r2,0(r2)
  80258c:	18800015 	stw	r2,0(r3)
	  temp  = *LEDs;
  802590:	00804034 	movhi	r2,256
  802594:	10842004 	addi	r2,r2,4224
  802598:	10800017 	ldw	r2,0(r2)
  80259c:	d0a77415 	stw	r2,-25136(gp)
	  temp  = (temp & 0x07);
  8025a0:	d0a77417 	ldw	r2,-25136(gp)
  8025a4:	108001cc 	andi	r2,r2,7
  8025a8:	d0a77415 	stw	r2,-25136(gp)
	  OSTimeDlyHMSM(0, 0, 0, 20);
  8025ac:	0009883a 	mov	r4,zero
  8025b0:	000b883a 	mov	r5,zero
  8025b4:	000d883a 	mov	r6,zero
  8025b8:	01c00504 	movi	r7,20
  8025bc:	0817fec0 	call	817fec <OSTimeDlyHMSM>
  }
  8025c0:	003fed06 	br	802578 <task5+0x14>

008025c4 <main>:
}


/* The main function creates all tasks and starts multi-tasking */
int main(void)
{
  8025c4:	defff904 	addi	sp,sp,-28
  8025c8:	dfc00615 	stw	ra,24(sp)
  8025cc:	df000515 	stw	fp,20(sp)
  8025d0:	df000504 	addi	fp,sp,20
	return_code = OS_NO_ERR;								/* Initializes error return code 	*/
  8025d4:	d0277805 	stb	zero,-25120(gp)
	alt_ucosii_check_return_code(return_code);
  8025d8:	d0a77803 	ldbu	r2,-25120(gp)
  8025dc:	11003fcc 	andi	r4,r2,255
  8025e0:	08001f80 	call	8001f8 <alt_ucosii_check_return_code>
	data_packet_sem = OSSemCreate(1);						/* Initializes GPS packet semaphore */
  8025e4:	01000044 	movi	r4,1
  8025e8:	08159580 	call	815958 <OSSemCreate>
  8025ec:	d0a77715 	stw	r2,-25124(gp)

	pwm1 		   = 0;
  8025f0:	d0277015 	stw	zero,-25152(gp)
	*PWM1_CTRL 	   = pwm1;
  8025f4:	00c04034 	movhi	r3,256
  8025f8:	18c41004 	addi	r3,r3,4160
  8025fc:	d0a77017 	ldw	r2,-25152(gp)
  802600:	18800015 	stw	r2,0(r3)
	*PWM1_PERIOD   = 1000000;
  802604:	00c04034 	movhi	r3,256
  802608:	18c41104 	addi	r3,r3,4164
  80260c:	008003f4 	movhi	r2,15
  802610:	10909004 	addi	r2,r2,16960
  802614:	18800015 	stw	r2,0(r3)
	*PWM1_NEUTRAL  = 75000;
  802618:	00c04034 	movhi	r3,256
  80261c:	18c41204 	addi	r3,r3,4168
  802620:	00800074 	movhi	r2,1
  802624:	10893e04 	addi	r2,r2,9464
  802628:	18800015 	stw	r2,0(r3)
	*PWM1_LARGEST  = 100000;
  80262c:	00c04034 	movhi	r3,256
  802630:	18c41304 	addi	r3,r3,4172
  802634:	008000b4 	movhi	r2,2
  802638:	10a1a804 	addi	r2,r2,-31072
  80263c:	18800015 	stw	r2,0(r3)
	*PWM1_SMALLEST = 50000;
  802640:	00c04034 	movhi	r3,256
  802644:	18c41404 	addi	r3,r3,4176
  802648:	00b0d414 	movui	r2,50000
  80264c:	18800015 	stw	r2,0(r3)
	*PWM1_ENABLE   = 1;
  802650:	00c04034 	movhi	r3,256
  802654:	18c41504 	addi	r3,r3,4180
  802658:	00800044 	movi	r2,1
  80265c:	18800015 	stw	r2,0(r3)
	temp_inc1 = 10;
  802660:	00800284 	movi	r2,10
  802664:	d0a77615 	stw	r2,-25128(gp)


	pwm2		   = 0;
  802668:	d0277215 	stw	zero,-25144(gp)
	*PWM2_CTRL 	   = pwm2;
  80266c:	00c04034 	movhi	r3,256
  802670:	18c41804 	addi	r3,r3,4192
  802674:	d0a77217 	ldw	r2,-25144(gp)
  802678:	18800015 	stw	r2,0(r3)
	*PWM2_PERIOD   = 1000000;
  80267c:	00c04034 	movhi	r3,256
  802680:	18c41904 	addi	r3,r3,4196
  802684:	008003f4 	movhi	r2,15
  802688:	10909004 	addi	r2,r2,16960
  80268c:	18800015 	stw	r2,0(r3)
	*PWM2_NEUTRAL  = 75000;
  802690:	00c04034 	movhi	r3,256
  802694:	18c41a04 	addi	r3,r3,4200
  802698:	00800074 	movhi	r2,1
  80269c:	10893e04 	addi	r2,r2,9464
  8026a0:	18800015 	stw	r2,0(r3)
	*PWM2_LARGEST  = 100000;
  8026a4:	00c04034 	movhi	r3,256
  8026a8:	18c41b04 	addi	r3,r3,4204
  8026ac:	008000b4 	movhi	r2,2
  8026b0:	10a1a804 	addi	r2,r2,-31072
  8026b4:	18800015 	stw	r2,0(r3)
	*PWM2_SMALLEST = 50000;
  8026b8:	00c04034 	movhi	r3,256
  8026bc:	18c41c04 	addi	r3,r3,4208
  8026c0:	00b0d414 	movui	r2,50000
  8026c4:	18800015 	stw	r2,0(r3)
	*PWM2_ENABLE   = 1;
  8026c8:	00c04034 	movhi	r3,256
  8026cc:	18c41d04 	addi	r3,r3,4212
  8026d0:	00800044 	movi	r2,1
  8026d4:	18800015 	stw	r2,0(r3)
	temp_inc2 	   = 10;
  8026d8:	00800284 	movi	r2,10
  8026dc:	d0a77915 	stw	r2,-25116(gp)


	return_code = OSTaskCreateExt(task1,
  8026e0:	018020b4 	movhi	r6,130
  8026e4:	318b5304 	addi	r6,r6,11596
  8026e8:	00800184 	movi	r2,6
  8026ec:	d8800015 	stw	r2,0(sp)
  8026f0:	008020b4 	movhi	r2,130
  8026f4:	10835404 	addi	r2,r2,3408
  8026f8:	d8800115 	stw	r2,4(sp)
  8026fc:	00820004 	movi	r2,2048
  802700:	d8800215 	stw	r2,8(sp)
  802704:	d8000315 	stw	zero,12(sp)
  802708:	d8000415 	stw	zero,16(sp)
  80270c:	01002034 	movhi	r4,128
  802710:	21085d04 	addi	r4,r4,8564
  802714:	000b883a 	mov	r5,zero
  802718:	01c00184 	movi	r7,6
  80271c:	0816ba80 	call	816ba8 <OSTaskCreateExt>
  802720:	d0a77805 	stb	r2,-25120(gp)
								  TASK1_PRIORITY,
								  task1_stk,
								  TASK_STACKSIZE,
								  NULL,
								  0);
	alt_ucosii_check_return_code(return_code);
  802724:	d0a77803 	ldbu	r2,-25120(gp)
  802728:	11003fcc 	andi	r4,r2,255
  80272c:	08001f80 	call	8001f8 <alt_ucosii_check_return_code>
              
               
	return_code = OSTaskCreateExt(task2,
  802730:	018020b4 	movhi	r6,130
  802734:	319b7b04 	addi	r6,r6,28140
  802738:	008001c4 	movi	r2,7
  80273c:	d8800015 	stw	r2,0(sp)
  802740:	008020b4 	movhi	r2,130
  802744:	10937c04 	addi	r2,r2,19952
  802748:	d8800115 	stw	r2,4(sp)
  80274c:	00820004 	movi	r2,2048
  802750:	d8800215 	stw	r2,8(sp)
  802754:	d8000315 	stw	zero,12(sp)
  802758:	d8000415 	stw	zero,16(sp)
  80275c:	01002034 	movhi	r4,128
  802760:	21089004 	addi	r4,r4,8768
  802764:	000b883a 	mov	r5,zero
  802768:	01c001c4 	movi	r7,7
  80276c:	0816ba80 	call	816ba8 <OSTaskCreateExt>
  802770:	d0a77805 	stb	r2,-25120(gp)
							      TASK2_PRIORITY,
							      task2_stk,
							      TASK_STACKSIZE,
							      NULL,
							      0);
	alt_ucosii_check_return_code(return_code);
  802774:	d0a77803 	ldbu	r2,-25120(gp)
  802778:	11003fcc 	andi	r4,r2,255
  80277c:	08001f80 	call	8001f8 <alt_ucosii_check_return_code>

	return_code = OSTaskCreateExt(task3,
  802780:	018020f4 	movhi	r6,131
  802784:	31a37b04 	addi	r6,r6,-29204
  802788:	00800204 	movi	r2,8
  80278c:	d8800015 	stw	r2,0(sp)
  802790:	008020b4 	movhi	r2,130
  802794:	109b7c04 	addi	r2,r2,28144
  802798:	d8800115 	stw	r2,4(sp)
  80279c:	00820004 	movi	r2,2048
  8027a0:	d8800215 	stw	r2,8(sp)
  8027a4:	d8000315 	stw	zero,12(sp)
  8027a8:	d8000415 	stw	zero,16(sp)
  8027ac:	01002034 	movhi	r4,128
  8027b0:	21091304 	addi	r4,r4,9292
  8027b4:	000b883a 	mov	r5,zero
  8027b8:	01c00204 	movi	r7,8
  8027bc:	0816ba80 	call	816ba8 <OSTaskCreateExt>
  8027c0:	d0a77805 	stb	r2,-25120(gp)
								  TASK3_PRIORITY,
								  task3_stk,
								  TASK_STACKSIZE,
								  NULL,
								  0);
	alt_ucosii_check_return_code(return_code);
  8027c4:	d0a77803 	ldbu	r2,-25120(gp)
  8027c8:	11003fcc 	andi	r4,r2,255
  8027cc:	08001f80 	call	8001f8 <alt_ucosii_check_return_code>


	return_code = OSTaskCreateExt(task4,
  8027d0:	018020b4 	movhi	r6,130
  8027d4:	31937b04 	addi	r6,r6,19948
  8027d8:	00800244 	movi	r2,9
  8027dc:	d8800015 	stw	r2,0(sp)
  8027e0:	008020b4 	movhi	r2,130
  8027e4:	108b7c04 	addi	r2,r2,11760
  8027e8:	d8800115 	stw	r2,4(sp)
  8027ec:	00820004 	movi	r2,2048
  8027f0:	d8800215 	stw	r2,8(sp)
  8027f4:	d8000315 	stw	zero,12(sp)
  8027f8:	d8000415 	stw	zero,16(sp)
  8027fc:	01002034 	movhi	r4,128
  802800:	21093604 	addi	r4,r4,9432
  802804:	000b883a 	mov	r5,zero
  802808:	01c00244 	movi	r7,9
  80280c:	0816ba80 	call	816ba8 <OSTaskCreateExt>
  802810:	d0a77805 	stb	r2,-25120(gp)
								  TASK4_PRIORITY,
								  task4_stk,
								  TASK_STACKSIZE,
								  NULL,
								  0);
	alt_ucosii_check_return_code(return_code);
  802814:	d0a77803 	ldbu	r2,-25120(gp)
  802818:	11003fcc 	andi	r4,r2,255
  80281c:	08001f80 	call	8001f8 <alt_ucosii_check_return_code>


	return_code = OSTaskCreateExt(task5,
  802820:	018020f4 	movhi	r6,131
  802824:	31ab8004 	addi	r6,r6,-20992
  802828:	00800284 	movi	r2,10
  80282c:	d8800015 	stw	r2,0(sp)
  802830:	008020f4 	movhi	r2,131
  802834:	10a38104 	addi	r2,r2,-29180
  802838:	d8800115 	stw	r2,4(sp)
  80283c:	00820004 	movi	r2,2048
  802840:	d8800215 	stw	r2,8(sp)
  802844:	d8000315 	stw	zero,12(sp)
  802848:	d8000415 	stw	zero,16(sp)
  80284c:	01002034 	movhi	r4,128
  802850:	21095904 	addi	r4,r4,9572
  802854:	000b883a 	mov	r5,zero
  802858:	01c00284 	movi	r7,10
  80285c:	0816ba80 	call	816ba8 <OSTaskCreateExt>
  802860:	d0a77805 	stb	r2,-25120(gp)
								  TASK5_PRIORITY,
								  task5_stk,
								  TASK_STACKSIZE,
								  NULL,
								  0);
	alt_ucosii_check_return_code(return_code);
  802864:	d0a77803 	ldbu	r2,-25120(gp)
  802868:	11003fcc 	andi	r4,r2,255
  80286c:	08001f80 	call	8001f8 <alt_ucosii_check_return_code>


	OSStart();
  802870:	0810dd40 	call	810dd4 <OSStart>
	return 0;
  802874:	0005883a 	mov	r2,zero
}
  802878:	e037883a 	mov	sp,fp
  80287c:	dfc00117 	ldw	ra,4(sp)
  802880:	df000017 	ldw	fp,0(sp)
  802884:	dec00204 	addi	sp,sp,8
  802888:	f800283a 	ret

0080288c <pow>:
  80288c:	deffee04 	addi	sp,sp,-72
  802890:	ddc01015 	stw	r23,64(sp)
  802894:	05c020b4 	movhi	r23,130
  802898:	bdfb9e04 	addi	r23,r23,-4488
  80289c:	dd800f15 	stw	r22,60(sp)
  8028a0:	dd400e15 	stw	r21,56(sp)
  8028a4:	dd000d15 	stw	r20,52(sp)
  8028a8:	dcc00c15 	stw	r19,48(sp)
  8028ac:	dc800b15 	stw	r18,44(sp)
  8028b0:	dc400a15 	stw	r17,40(sp)
  8028b4:	dc000915 	stw	r16,36(sp)
  8028b8:	2029883a 	mov	r20,r4
  8028bc:	dfc01115 	stw	ra,68(sp)
  8028c0:	3025883a 	mov	r18,r6
  8028c4:	282b883a 	mov	r21,r5
  8028c8:	3827883a 	mov	r19,r7
  8028cc:	0802d140 	call	802d14 <__ieee754_pow>
  8028d0:	b9000017 	ldw	r4,0(r23)
  8028d4:	05bfffc4 	movi	r22,-1
  8028d8:	1021883a 	mov	r16,r2
  8028dc:	1823883a 	mov	r17,r3
  8028e0:	25800426 	beq	r4,r22,8028f4 <pow+0x68>
  8028e4:	9009883a 	mov	r4,r18
  8028e8:	980b883a 	mov	r5,r19
  8028ec:	08043100 	call	804310 <__isnand>
  8028f0:	10000d26 	beq	r2,zero,802928 <pow+0x9c>
  8028f4:	8005883a 	mov	r2,r16
  8028f8:	8807883a 	mov	r3,r17
  8028fc:	dfc01117 	ldw	ra,68(sp)
  802900:	ddc01017 	ldw	r23,64(sp)
  802904:	dd800f17 	ldw	r22,60(sp)
  802908:	dd400e17 	ldw	r21,56(sp)
  80290c:	dd000d17 	ldw	r20,52(sp)
  802910:	dcc00c17 	ldw	r19,48(sp)
  802914:	dc800b17 	ldw	r18,44(sp)
  802918:	dc400a17 	ldw	r17,40(sp)
  80291c:	dc000917 	ldw	r16,36(sp)
  802920:	dec01204 	addi	sp,sp,72
  802924:	f800283a 	ret
  802928:	a009883a 	mov	r4,r20
  80292c:	a80b883a 	mov	r5,r21
  802930:	08043100 	call	804310 <__isnand>
  802934:	1000151e 	bne	r2,zero,80298c <pow+0x100>
  802938:	000d883a 	mov	r6,zero
  80293c:	000f883a 	mov	r7,zero
  802940:	a009883a 	mov	r4,r20
  802944:	a80b883a 	mov	r5,r21
  802948:	080528c0 	call	80528c <__eqdf2>
  80294c:	1000541e 	bne	r2,zero,802aa0 <pow+0x214>
  802950:	000d883a 	mov	r6,zero
  802954:	000f883a 	mov	r7,zero
  802958:	9009883a 	mov	r4,r18
  80295c:	980b883a 	mov	r5,r19
  802960:	080528c0 	call	80528c <__eqdf2>
  802964:	10002c1e 	bne	r2,zero,802a18 <pow+0x18c>
  802968:	b8800017 	ldw	r2,0(r23)
  80296c:	d8000615 	stw	zero,24(sp)
  802970:	d8000715 	stw	zero,28(sp)
  802974:	10001226 	beq	r2,zero,8029c0 <pow+0x134>
  802978:	008ffc34 	movhi	r2,16368
  80297c:	d8800715 	stw	r2,28(sp)
  802980:	dc000617 	ldw	r16,24(sp)
  802984:	dc400717 	ldw	r17,28(sp)
  802988:	003fda06 	br	8028f4 <pow+0x68>
  80298c:	000d883a 	mov	r6,zero
  802990:	000f883a 	mov	r7,zero
  802994:	9009883a 	mov	r4,r18
  802998:	980b883a 	mov	r5,r19
  80299c:	080528c0 	call	80528c <__eqdf2>
  8029a0:	103fd41e 	bne	r2,zero,8028f4 <pow+0x68>
  8029a4:	b8c00017 	ldw	r3,0(r23)
  8029a8:	010ffc34 	movhi	r4,16368
  8029ac:	d8000615 	stw	zero,24(sp)
  8029b0:	d9000715 	stw	r4,28(sp)
  8029b4:	1d801526 	beq	r3,r22,802a0c <pow+0x180>
  8029b8:	00800084 	movi	r2,2
  8029bc:	18801326 	beq	r3,r2,802a0c <pow+0x180>
  8029c0:	008020b4 	movhi	r2,130
  8029c4:	10b2bb04 	addi	r2,r2,-13588
  8029c8:	00c00044 	movi	r3,1
  8029cc:	d809883a 	mov	r4,sp
  8029d0:	dcc00515 	stw	r19,20(sp)
  8029d4:	dd400315 	stw	r21,12(sp)
  8029d8:	d8800115 	stw	r2,4(sp)
  8029dc:	d8c00015 	stw	r3,0(sp)
  8029e0:	dc800415 	stw	r18,16(sp)
  8029e4:	dd000215 	stw	r20,8(sp)
  8029e8:	d8000815 	stw	zero,32(sp)
  8029ec:	08043400 	call	804340 <matherr>
  8029f0:	10002726 	beq	r2,zero,802a90 <pow+0x204>
  8029f4:	d8800817 	ldw	r2,32(sp)
  8029f8:	103fe126 	beq	r2,zero,802980 <pow+0xf4>
  8029fc:	0805d300 	call	805d30 <__errno>
  802a00:	d8c00817 	ldw	r3,32(sp)
  802a04:	10c00015 	stw	r3,0(r2)
  802a08:	003fdd06 	br	802980 <pow+0xf4>
  802a0c:	d9000715 	stw	r4,28(sp)
  802a10:	d8000615 	stw	zero,24(sp)
  802a14:	003fda06 	br	802980 <pow+0xf4>
  802a18:	9009883a 	mov	r4,r18
  802a1c:	980b883a 	mov	r5,r19
  802a20:	08042f40 	call	8042f4 <finite>
  802a24:	103fb326 	beq	r2,zero,8028f4 <pow+0x68>
  802a28:	000d883a 	mov	r6,zero
  802a2c:	000f883a 	mov	r7,zero
  802a30:	9009883a 	mov	r4,r18
  802a34:	980b883a 	mov	r5,r19
  802a38:	08054240 	call	805424 <__ltdf2>
  802a3c:	103fad0e 	bge	r2,zero,8028f4 <pow+0x68>
  802a40:	b9000017 	ldw	r4,0(r23)
  802a44:	00800044 	movi	r2,1
  802a48:	00c020b4 	movhi	r3,130
  802a4c:	18f2bb04 	addi	r3,r3,-13588
  802a50:	d8800015 	stw	r2,0(sp)
  802a54:	d8c00115 	stw	r3,4(sp)
  802a58:	dd400315 	stw	r21,12(sp)
  802a5c:	dcc00515 	stw	r19,20(sp)
  802a60:	d8000815 	stw	zero,32(sp)
  802a64:	dd000215 	stw	r20,8(sp)
  802a68:	dc800415 	stw	r18,16(sp)
  802a6c:	20005626 	beq	r4,zero,802bc8 <pow+0x33c>
  802a70:	00bffc34 	movhi	r2,65520
  802a74:	d8800715 	stw	r2,28(sp)
  802a78:	00800084 	movi	r2,2
  802a7c:	d8000615 	stw	zero,24(sp)
  802a80:	20800326 	beq	r4,r2,802a90 <pow+0x204>
  802a84:	d809883a 	mov	r4,sp
  802a88:	08043400 	call	804340 <matherr>
  802a8c:	103fd91e 	bne	r2,zero,8029f4 <pow+0x168>
  802a90:	0805d300 	call	805d30 <__errno>
  802a94:	00c00844 	movi	r3,33
  802a98:	10c00015 	stw	r3,0(r2)
  802a9c:	003fd506 	br	8029f4 <pow+0x168>
  802aa0:	8009883a 	mov	r4,r16
  802aa4:	880b883a 	mov	r5,r17
  802aa8:	08042f40 	call	8042f4 <finite>
  802aac:	10002426 	beq	r2,zero,802b40 <pow+0x2b4>
  802ab0:	000d883a 	mov	r6,zero
  802ab4:	000f883a 	mov	r7,zero
  802ab8:	8009883a 	mov	r4,r16
  802abc:	880b883a 	mov	r5,r17
  802ac0:	080528c0 	call	80528c <__eqdf2>
  802ac4:	103f8b1e 	bne	r2,zero,8028f4 <pow+0x68>
  802ac8:	a009883a 	mov	r4,r20
  802acc:	a80b883a 	mov	r5,r21
  802ad0:	08042f40 	call	8042f4 <finite>
  802ad4:	103f8726 	beq	r2,zero,8028f4 <pow+0x68>
  802ad8:	9009883a 	mov	r4,r18
  802adc:	980b883a 	mov	r5,r19
  802ae0:	08042f40 	call	8042f4 <finite>
  802ae4:	103f8326 	beq	r2,zero,8028f4 <pow+0x68>
  802ae8:	b9000017 	ldw	r4,0(r23)
  802aec:	00800104 	movi	r2,4
  802af0:	d8800015 	stw	r2,0(sp)
  802af4:	00c020b4 	movhi	r3,130
  802af8:	18f2bb04 	addi	r3,r3,-13588
  802afc:	00800084 	movi	r2,2
  802b00:	d8c00115 	stw	r3,4(sp)
  802b04:	dd400315 	stw	r21,12(sp)
  802b08:	dcc00515 	stw	r19,20(sp)
  802b0c:	d8000815 	stw	zero,32(sp)
  802b10:	dd000215 	stw	r20,8(sp)
  802b14:	dc800415 	stw	r18,16(sp)
  802b18:	d8000615 	stw	zero,24(sp)
  802b1c:	d8000715 	stw	zero,28(sp)
  802b20:	20800326 	beq	r4,r2,802b30 <pow+0x2a4>
  802b24:	d809883a 	mov	r4,sp
  802b28:	08043400 	call	804340 <matherr>
  802b2c:	103fb11e 	bne	r2,zero,8029f4 <pow+0x168>
  802b30:	0805d300 	call	805d30 <__errno>
  802b34:	00c00884 	movi	r3,34
  802b38:	10c00015 	stw	r3,0(r2)
  802b3c:	003fad06 	br	8029f4 <pow+0x168>
  802b40:	a009883a 	mov	r4,r20
  802b44:	a80b883a 	mov	r5,r21
  802b48:	08042f40 	call	8042f4 <finite>
  802b4c:	103fd826 	beq	r2,zero,802ab0 <pow+0x224>
  802b50:	9009883a 	mov	r4,r18
  802b54:	980b883a 	mov	r5,r19
  802b58:	08042f40 	call	8042f4 <finite>
  802b5c:	103fd426 	beq	r2,zero,802ab0 <pow+0x224>
  802b60:	880b883a 	mov	r5,r17
  802b64:	8009883a 	mov	r4,r16
  802b68:	08043100 	call	804310 <__isnand>
  802b6c:	10001926 	beq	r2,zero,802bd4 <pow+0x348>
  802b70:	bc000017 	ldw	r16,0(r23)
  802b74:	00800044 	movi	r2,1
  802b78:	00c020b4 	movhi	r3,130
  802b7c:	18f2bb04 	addi	r3,r3,-13588
  802b80:	d8800015 	stw	r2,0(sp)
  802b84:	d8c00115 	stw	r3,4(sp)
  802b88:	dd400315 	stw	r21,12(sp)
  802b8c:	dcc00515 	stw	r19,20(sp)
  802b90:	d8000815 	stw	zero,32(sp)
  802b94:	dd000215 	stw	r20,8(sp)
  802b98:	dc800415 	stw	r18,16(sp)
  802b9c:	80000a26 	beq	r16,zero,802bc8 <pow+0x33c>
  802ba0:	0009883a 	mov	r4,zero
  802ba4:	000d883a 	mov	r6,zero
  802ba8:	000b883a 	mov	r5,zero
  802bac:	000f883a 	mov	r7,zero
  802bb0:	08050340 	call	805034 <__divdf3>
  802bb4:	d8800615 	stw	r2,24(sp)
  802bb8:	00800084 	movi	r2,2
  802bbc:	d8c00715 	stw	r3,28(sp)
  802bc0:	80bfb01e 	bne	r16,r2,802a84 <pow+0x1f8>
  802bc4:	003fb206 	br	802a90 <pow+0x204>
  802bc8:	d8000615 	stw	zero,24(sp)
  802bcc:	d8000715 	stw	zero,28(sp)
  802bd0:	003fac06 	br	802a84 <pow+0x1f8>
  802bd4:	b8800017 	ldw	r2,0(r23)
  802bd8:	00c000c4 	movi	r3,3
  802bdc:	010020b4 	movhi	r4,130
  802be0:	2132bb04 	addi	r4,r4,-13588
  802be4:	d8c00015 	stw	r3,0(sp)
  802be8:	d9000115 	stw	r4,4(sp)
  802bec:	d8000815 	stw	zero,32(sp)
  802bf0:	dd000215 	stw	r20,8(sp)
  802bf4:	dd400315 	stw	r21,12(sp)
  802bf8:	dc800415 	stw	r18,16(sp)
  802bfc:	dcc00515 	stw	r19,20(sp)
  802c00:	1000251e 	bne	r2,zero,802c98 <pow+0x40c>
  802c04:	05b80034 	movhi	r22,57344
  802c08:	0091fc34 	movhi	r2,18416
  802c0c:	10bfffc4 	addi	r2,r2,-1
  802c10:	000d883a 	mov	r6,zero
  802c14:	000f883a 	mov	r7,zero
  802c18:	a80b883a 	mov	r5,r21
  802c1c:	a009883a 	mov	r4,r20
  802c20:	d8800715 	stw	r2,28(sp)
  802c24:	dd800615 	stw	r22,24(sp)
  802c28:	08054240 	call	805424 <__ltdf2>
  802c2c:	103fbd0e 	bge	r2,zero,802b24 <pow+0x298>
  802c30:	0005883a 	mov	r2,zero
  802c34:	00cff834 	movhi	r3,16352
  802c38:	180f883a 	mov	r7,r3
  802c3c:	100d883a 	mov	r6,r2
  802c40:	980b883a 	mov	r5,r19
  802c44:	9009883a 	mov	r4,r18
  802c48:	0804c700 	call	804c70 <__muldf3>
  802c4c:	1009883a 	mov	r4,r2
  802c50:	180b883a 	mov	r5,r3
  802c54:	1021883a 	mov	r16,r2
  802c58:	1823883a 	mov	r17,r3
  802c5c:	08043580 	call	804358 <rint>
  802c60:	180f883a 	mov	r7,r3
  802c64:	8009883a 	mov	r4,r16
  802c68:	880b883a 	mov	r5,r17
  802c6c:	100d883a 	mov	r6,r2
  802c70:	08053140 	call	805314 <__nedf2>
  802c74:	10000426 	beq	r2,zero,802c88 <pow+0x3fc>
  802c78:	00b1fc34 	movhi	r2,51184
  802c7c:	10bfffc4 	addi	r2,r2,-1
  802c80:	dd800615 	stw	r22,24(sp)
  802c84:	d8800715 	stw	r2,28(sp)
  802c88:	b8c00017 	ldw	r3,0(r23)
  802c8c:	00800084 	movi	r2,2
  802c90:	18bfa41e 	bne	r3,r2,802b24 <pow+0x298>
  802c94:	003fa606 	br	802b30 <pow+0x2a4>
  802c98:	009ffc34 	movhi	r2,32752
  802c9c:	000d883a 	mov	r6,zero
  802ca0:	000f883a 	mov	r7,zero
  802ca4:	a80b883a 	mov	r5,r21
  802ca8:	a009883a 	mov	r4,r20
  802cac:	d8800715 	stw	r2,28(sp)
  802cb0:	d8000615 	stw	zero,24(sp)
  802cb4:	08054240 	call	805424 <__ltdf2>
  802cb8:	103ff30e 	bge	r2,zero,802c88 <pow+0x3fc>
  802cbc:	0005883a 	mov	r2,zero
  802cc0:	00cff834 	movhi	r3,16352
  802cc4:	180f883a 	mov	r7,r3
  802cc8:	100d883a 	mov	r6,r2
  802ccc:	980b883a 	mov	r5,r19
  802cd0:	9009883a 	mov	r4,r18
  802cd4:	0804c700 	call	804c70 <__muldf3>
  802cd8:	1009883a 	mov	r4,r2
  802cdc:	180b883a 	mov	r5,r3
  802ce0:	1021883a 	mov	r16,r2
  802ce4:	1823883a 	mov	r17,r3
  802ce8:	08043580 	call	804358 <rint>
  802cec:	180f883a 	mov	r7,r3
  802cf0:	8009883a 	mov	r4,r16
  802cf4:	880b883a 	mov	r5,r17
  802cf8:	100d883a 	mov	r6,r2
  802cfc:	08053140 	call	805314 <__nedf2>
  802d00:	103fe126 	beq	r2,zero,802c88 <pow+0x3fc>
  802d04:	00bffc34 	movhi	r2,65520
  802d08:	d8800715 	stw	r2,28(sp)
  802d0c:	d8000615 	stw	zero,24(sp)
  802d10:	003fdd06 	br	802c88 <pow+0x3fc>

00802d14 <__ieee754_pow>:
  802d14:	deffbb04 	addi	sp,sp,-276
  802d18:	3005883a 	mov	r2,r6
  802d1c:	dd404015 	stw	r21,256(sp)
  802d20:	dd003f15 	stw	r20,252(sp)
  802d24:	d9802815 	stw	r6,160(sp)
  802d28:	2029883a 	mov	r20,r4
  802d2c:	282b883a 	mov	r21,r5
  802d30:	3009883a 	mov	r4,r6
  802d34:	380b883a 	mov	r5,r7
  802d38:	01a00034 	movhi	r6,32768
  802d3c:	31bfffc4 	addi	r6,r6,-1
  802d40:	dc003b15 	stw	r16,236(sp)
  802d44:	29a0703a 	and	r16,r5,r6
  802d48:	1404b03a 	or	r2,r2,r16
  802d4c:	dd804115 	stw	r22,260(sp)
  802d50:	dc403c15 	stw	r17,240(sp)
  802d54:	d9c02915 	stw	r7,164(sp)
  802d58:	382d883a 	mov	r22,r7
  802d5c:	dfc04415 	stw	ra,272(sp)
  802d60:	200f883a 	mov	r7,r4
  802d64:	df004315 	stw	fp,268(sp)
  802d68:	ddc04215 	stw	r23,264(sp)
  802d6c:	dcc03e15 	stw	r19,248(sp)
  802d70:	dc803d15 	stw	r18,244(sp)
  802d74:	a023883a 	mov	r17,r20
  802d78:	2809883a 	mov	r4,r5
  802d7c:	10000826 	beq	r2,zero,802da0 <__ieee754_pow+0x8c>
  802d80:	a9a4703a 	and	r18,r21,r6
  802d84:	009ffc34 	movhi	r2,32752
  802d88:	a827883a 	mov	r19,r21
  802d8c:	1480180e 	bge	r2,r18,802df0 <__ieee754_pow+0xdc>
  802d90:	00b00434 	movhi	r2,49168
  802d94:	9085883a 	add	r2,r18,r2
  802d98:	8884b03a 	or	r2,r17,r2
  802d9c:	1000321e 	bne	r2,zero,802e68 <__ieee754_pow+0x154>
  802da0:	0009883a 	mov	r4,zero
  802da4:	014ffc34 	movhi	r5,16368
  802da8:	d9002815 	stw	r4,160(sp)
  802dac:	d9402915 	stw	r5,164(sp)
  802db0:	d9002817 	ldw	r4,160(sp)
  802db4:	d9402917 	ldw	r5,164(sp)
  802db8:	2005883a 	mov	r2,r4
  802dbc:	2807883a 	mov	r3,r5
  802dc0:	dfc04417 	ldw	ra,272(sp)
  802dc4:	df004317 	ldw	fp,268(sp)
  802dc8:	ddc04217 	ldw	r23,264(sp)
  802dcc:	dd804117 	ldw	r22,260(sp)
  802dd0:	dd404017 	ldw	r21,256(sp)
  802dd4:	dd003f17 	ldw	r20,252(sp)
  802dd8:	dcc03e17 	ldw	r19,248(sp)
  802ddc:	dc803d17 	ldw	r18,244(sp)
  802de0:	dc403c17 	ldw	r17,240(sp)
  802de4:	dc003b17 	ldw	r16,236(sp)
  802de8:	dec04504 	addi	sp,sp,276
  802dec:	f800283a 	ret
  802df0:	90802b26 	beq	r18,r2,802ea0 <__ieee754_pow+0x18c>
  802df4:	143fe616 	blt	r2,r16,802d90 <__ieee754_pow+0x7c>
  802df8:	80806126 	beq	r16,r2,802f80 <__ieee754_pow+0x26c>
  802dfc:	982e403a 	cmpge	r23,r19,zero
  802e00:	b8004e26 	beq	r23,zero,802f3c <__ieee754_pow+0x228>
  802e04:	0039883a 	mov	fp,zero
  802e08:	3800281e 	bne	r7,zero,802eac <__ieee754_pow+0x198>
  802e0c:	009ffc34 	movhi	r2,32752
  802e10:	80804f26 	beq	r16,r2,802f50 <__ieee754_pow+0x23c>
  802e14:	008ffc34 	movhi	r2,16368
  802e18:	80808226 	beq	r16,r2,803024 <__ieee754_pow+0x310>
  802e1c:	00900034 	movhi	r2,16384
  802e20:	20828426 	beq	r4,r2,803834 <__ieee754_pow+0xb20>
  802e24:	008ff834 	movhi	r2,16352
  802e28:	2080201e 	bne	r4,r2,802eac <__ieee754_pow+0x198>
  802e2c:	98001f16 	blt	r19,zero,802eac <__ieee754_pow+0x198>
  802e30:	a80b883a 	mov	r5,r21
  802e34:	a009883a 	mov	r4,r20
  802e38:	dfc04417 	ldw	ra,272(sp)
  802e3c:	df004317 	ldw	fp,268(sp)
  802e40:	ddc04217 	ldw	r23,264(sp)
  802e44:	dd804117 	ldw	r22,260(sp)
  802e48:	dd404017 	ldw	r21,256(sp)
  802e4c:	dd003f17 	ldw	r20,252(sp)
  802e50:	dcc03e17 	ldw	r19,248(sp)
  802e54:	dc803d17 	ldw	r18,244(sp)
  802e58:	dc403c17 	ldw	r17,240(sp)
  802e5c:	dc003b17 	ldw	r16,236(sp)
  802e60:	dec04504 	addi	sp,sp,276
  802e64:	08040141 	jmpi	804014 <__ieee754_sqrt>
  802e68:	010020b4 	movhi	r4,130
  802e6c:	21332204 	addi	r4,r4,-13176
  802e70:	dfc04417 	ldw	ra,272(sp)
  802e74:	df004317 	ldw	fp,268(sp)
  802e78:	ddc04217 	ldw	r23,264(sp)
  802e7c:	dd804117 	ldw	r22,260(sp)
  802e80:	dd404017 	ldw	r21,256(sp)
  802e84:	dd003f17 	ldw	r20,252(sp)
  802e88:	dcc03e17 	ldw	r19,248(sp)
  802e8c:	dc803d17 	ldw	r18,244(sp)
  802e90:	dc403c17 	ldw	r17,240(sp)
  802e94:	dc003b17 	ldw	r16,236(sp)
  802e98:	dec04504 	addi	sp,sp,276
  802e9c:	08043481 	jmpi	804348 <nan>
  802ea0:	a03fbb1e 	bne	r20,zero,802d90 <__ieee754_pow+0x7c>
  802ea4:	003fd306 	br	802df4 <__ieee754_pow+0xe0>
  802ea8:	0039883a 	mov	fp,zero
  802eac:	a009883a 	mov	r4,r20
  802eb0:	a80b883a 	mov	r5,r21
  802eb4:	08042dc0 	call	8042dc <fabs>
  802eb8:	1015883a 	mov	r10,r2
  802ebc:	1817883a 	mov	r11,r3
  802ec0:	88001226 	beq	r17,zero,802f0c <__ieee754_pow+0x1f8>
  802ec4:	9804d7fa 	srli	r2,r19,31
  802ec8:	10bfffc4 	addi	r2,r2,-1
  802ecc:	1706b03a 	or	r3,r2,fp
  802ed0:	d8802515 	stw	r2,148(sp)
  802ed4:	18002c1e 	bne	r3,zero,802f88 <__ieee754_pow+0x274>
  802ed8:	a80f883a 	mov	r7,r21
  802edc:	a009883a 	mov	r4,r20
  802ee0:	a80b883a 	mov	r5,r21
  802ee4:	a00d883a 	mov	r6,r20
  802ee8:	0804b7c0 	call	804b7c <__subdf3>
  802eec:	1009883a 	mov	r4,r2
  802ef0:	180b883a 	mov	r5,r3
  802ef4:	100d883a 	mov	r6,r2
  802ef8:	180f883a 	mov	r7,r3
  802efc:	08050340 	call	805034 <__divdf3>
  802f00:	d8802815 	stw	r2,160(sp)
  802f04:	d8c02915 	stw	r3,164(sp)
  802f08:	003fa906 	br	802db0 <__ieee754_pow+0x9c>
  802f0c:	009ffc34 	movhi	r2,32752
  802f10:	90800326 	beq	r18,r2,802f20 <__ieee754_pow+0x20c>
  802f14:	90000226 	beq	r18,zero,802f20 <__ieee754_pow+0x20c>
  802f18:	008ffc34 	movhi	r2,16368
  802f1c:	90bfe91e 	bne	r18,r2,802ec4 <__ieee754_pow+0x1b0>
  802f20:	b0026316 	blt	r22,zero,8038b0 <__ieee754_pow+0xb9c>
  802f24:	5011883a 	mov	r8,r10
  802f28:	5813883a 	mov	r9,r11
  802f2c:	b8023126 	beq	r23,zero,8037f4 <__ieee754_pow+0xae0>
  802f30:	da002815 	stw	r8,160(sp)
  802f34:	da402915 	stw	r9,164(sp)
  802f38:	003f9d06 	br	802db0 <__ieee754_pow+0x9c>
  802f3c:	0090d034 	movhi	r2,17216
  802f40:	10bfffc4 	addi	r2,r2,-1
  802f44:	1400270e 	bge	r2,r16,802fe4 <__ieee754_pow+0x2d0>
  802f48:	07000084 	movi	fp,2
  802f4c:	003fae06 	br	802e08 <__ieee754_pow+0xf4>
  802f50:	00b00434 	movhi	r2,49168
  802f54:	9085883a 	add	r2,r18,r2
  802f58:	8884b03a 	or	r2,r17,r2
  802f5c:	103f9026 	beq	r2,zero,802da0 <__ieee754_pow+0x8c>
  802f60:	008ffc34 	movhi	r2,16368
  802f64:	10bfffc4 	addi	r2,r2,-1
  802f68:	1482d00e 	bge	r2,r18,803aac <__ieee754_pow+0xd98>
  802f6c:	b03f900e 	bge	r22,zero,802db0 <__ieee754_pow+0x9c>
  802f70:	0005883a 	mov	r2,zero
  802f74:	d8802815 	stw	r2,160(sp)
  802f78:	d8802915 	stw	r2,164(sp)
  802f7c:	003f8c06 	br	802db0 <__ieee754_pow+0x9c>
  802f80:	383f9e26 	beq	r7,zero,802dfc <__ieee754_pow+0xe8>
  802f84:	003f8206 	br	802d90 <__ieee754_pow+0x7c>
  802f88:	00907834 	movhi	r2,16864
  802f8c:	1400290e 	bge	r2,r16,803034 <__ieee754_pow+0x320>
  802f90:	0090fc34 	movhi	r2,17392
  802f94:	1402500e 	bge	r2,r16,8038d8 <__ieee754_pow+0xbc4>
  802f98:	008ffc34 	movhi	r2,16368
  802f9c:	10bfffc4 	addi	r2,r2,-1
  802fa0:	14800b0e 	bge	r2,r18,802fd0 <__ieee754_pow+0x2bc>
  802fa4:	05800b0e 	bge	zero,r22,802fd4 <__ieee754_pow+0x2c0>
  802fa8:	00a20034 	movhi	r2,34816
  802fac:	109d6704 	addi	r2,r2,30108
  802fb0:	00df8e34 	movhi	r3,32312
  802fb4:	18f90f04 	addi	r3,r3,-7108
  802fb8:	100d883a 	mov	r6,r2
  802fbc:	180f883a 	mov	r7,r3
  802fc0:	1009883a 	mov	r4,r2
  802fc4:	180b883a 	mov	r5,r3
  802fc8:	0804c700 	call	804c70 <__muldf3>
  802fcc:	003fcc06 	br	802f00 <__ieee754_pow+0x1ec>
  802fd0:	b03ff516 	blt	r22,zero,802fa8 <__ieee754_pow+0x294>
  802fd4:	0007883a 	mov	r3,zero
  802fd8:	d8c02815 	stw	r3,160(sp)
  802fdc:	d8c02915 	stw	r3,164(sp)
  802fe0:	003f7306 	br	802db0 <__ieee754_pow+0x9c>
  802fe4:	008ffc34 	movhi	r2,16368
  802fe8:	10bfffc4 	addi	r2,r2,-1
  802fec:	143f850e 	bge	r2,r16,802e04 <__ieee754_pow+0xf0>
  802ff0:	8005d53a 	srai	r2,r16,20
  802ff4:	01400504 	movi	r5,20
  802ff8:	10ff0044 	addi	r3,r2,-1023
  802ffc:	28c3e10e 	bge	r5,r3,803f84 <__ieee754_pow+0x1270>
  803000:	00800d04 	movi	r2,52
  803004:	10c5c83a 	sub	r2,r2,r3
  803008:	3886d83a 	srl	r3,r7,r2
  80300c:	1884983a 	sll	r2,r3,r2
  803010:	38bf7c1e 	bne	r7,r2,802e04 <__ieee754_pow+0xf0>
  803014:	18c0004c 	andi	r3,r3,1
  803018:	00800084 	movi	r2,2
  80301c:	10f9c83a 	sub	fp,r2,r3
  803020:	003f7906 	br	802e08 <__ieee754_pow+0xf4>
  803024:	b0038516 	blt	r22,zero,803e3c <__ieee754_pow+0x1128>
  803028:	dd002815 	stw	r20,160(sp)
  80302c:	dd402915 	stw	r21,164(sp)
  803030:	003f5f06 	br	802db0 <__ieee754_pow+0x9c>
  803034:	00800434 	movhi	r2,16
  803038:	10bfffc4 	addi	r2,r2,-1
  80303c:	1482900e 	bge	r2,r18,803a80 <__ieee754_pow+0xd6c>
  803040:	000b883a 	mov	r5,zero
  803044:	9005d53a 	srai	r2,r18,20
  803048:	00c00434 	movhi	r3,16
  80304c:	18ffffc4 	addi	r3,r3,-1
  803050:	90c8703a 	and	r4,r18,r3
  803054:	2887883a 	add	r3,r5,r2
  803058:	18bf0044 	addi	r2,r3,-1023
  80305c:	d8800015 	stw	r2,0(sp)
  803060:	00800134 	movhi	r2,4
  803064:	10a62384 	addi	r2,r2,-26482
  803068:	250ffc34 	orhi	r20,r4,16368
  80306c:	1101ee0e 	bge	r2,r4,803828 <__ieee754_pow+0xb14>
  803070:	00800334 	movhi	r2,12
  803074:	10ad9e44 	addi	r2,r2,-18823
  803078:	1101e716 	blt	r2,r4,803818 <__ieee754_pow+0xb04>
  80307c:	01000044 	movi	r4,1
  803080:	04000334 	movhi	r16,12
  803084:	200890fa 	slli	r4,r4,3
  803088:	da800115 	stw	r10,4(sp)
  80308c:	dd000215 	stw	r20,8(sp)
  803090:	d9002c15 	stw	r4,176(sp)
  803094:	d9402c17 	ldw	r5,176(sp)
  803098:	010020b4 	movhi	r4,130
  80309c:	2132bc04 	addi	r4,r4,-13584
  8030a0:	a02bd07a 	srai	r21,r20,1
  8030a4:	2909883a 	add	r4,r5,r4
  8030a8:	25800017 	ldw	r22,0(r4)
  8030ac:	25c00117 	ldw	r23,4(r4)
  8030b0:	a00b883a 	mov	r5,r20
  8030b4:	5009883a 	mov	r4,r10
  8030b8:	b00d883a 	mov	r6,r22
  8030bc:	b80f883a 	mov	r7,r23
  8030c0:	0804b7c0 	call	804b7c <__subdf3>
  8030c4:	d9000117 	ldw	r4,4(sp)
  8030c8:	a00b883a 	mov	r5,r20
  8030cc:	b00d883a 	mov	r6,r22
  8030d0:	b80f883a 	mov	r7,r23
  8030d4:	1025883a 	mov	r18,r2
  8030d8:	1827883a 	mov	r19,r3
  8030dc:	0804bfc0 	call	804bfc <__adddf3>
  8030e0:	0011883a 	mov	r8,zero
  8030e4:	024ffc34 	movhi	r9,16368
  8030e8:	480b883a 	mov	r5,r9
  8030ec:	4009883a 	mov	r4,r8
  8030f0:	180f883a 	mov	r7,r3
  8030f4:	100d883a 	mov	r6,r2
  8030f8:	08050340 	call	805034 <__divdf3>
  8030fc:	d8c02e15 	stw	r3,184(sp)
  803100:	d8800f15 	stw	r2,60(sp)
  803104:	d8802d15 	stw	r2,180(sp)
  803108:	d8802e17 	ldw	r2,184(sp)
  80310c:	d9800f17 	ldw	r6,60(sp)
  803110:	9009883a 	mov	r4,r18
  803114:	980b883a 	mov	r5,r19
  803118:	100f883a 	mov	r7,r2
  80311c:	dc800b15 	stw	r18,44(sp)
  803120:	dcc00c15 	stw	r19,48(sp)
  803124:	d8801015 	stw	r2,64(sp)
  803128:	0804c700 	call	804c70 <__muldf3>
  80312c:	d8c03015 	stw	r3,192(sp)
  803130:	d9003017 	ldw	r4,192(sp)
  803134:	d8802f15 	stw	r2,188(sp)
  803138:	d8800315 	stw	r2,12(sp)
  80313c:	ad480034 	orhi	r21,r21,8192
  803140:	0005883a 	mov	r2,zero
  803144:	ac2b883a 	add	r21,r21,r16
  803148:	000b883a 	mov	r5,zero
  80314c:	1021883a 	mov	r16,r2
  803150:	2005883a 	mov	r2,r4
  803154:	800d883a 	mov	r6,r16
  803158:	a80f883a 	mov	r7,r21
  80315c:	d9000415 	stw	r4,16(sp)
  803160:	d9002715 	stw	r4,156(sp)
  803164:	d9402615 	stw	r5,152(sp)
  803168:	d9401615 	stw	r5,88(sp)
  80316c:	d9001715 	stw	r4,92(sp)
  803170:	100b883a 	mov	r5,r2
  803174:	0009883a 	mov	r4,zero
  803178:	0804c700 	call	804c70 <__muldf3>
  80317c:	d9000b17 	ldw	r4,44(sp)
  803180:	980b883a 	mov	r5,r19
  803184:	180f883a 	mov	r7,r3
  803188:	100d883a 	mov	r6,r2
  80318c:	0804b7c0 	call	804b7c <__subdf3>
  803190:	8009883a 	mov	r4,r16
  803194:	a80b883a 	mov	r5,r21
  803198:	b80f883a 	mov	r7,r23
  80319c:	b00d883a 	mov	r6,r22
  8031a0:	1021883a 	mov	r16,r2
  8031a4:	1823883a 	mov	r17,r3
  8031a8:	0804b7c0 	call	804b7c <__subdf3>
  8031ac:	d9000117 	ldw	r4,4(sp)
  8031b0:	a00b883a 	mov	r5,r20
  8031b4:	180f883a 	mov	r7,r3
  8031b8:	100d883a 	mov	r6,r2
  8031bc:	0804b7c0 	call	804b7c <__subdf3>
  8031c0:	d9001617 	ldw	r4,88(sp)
  8031c4:	d9402717 	ldw	r5,156(sp)
  8031c8:	180f883a 	mov	r7,r3
  8031cc:	100d883a 	mov	r6,r2
  8031d0:	0804c700 	call	804c70 <__muldf3>
  8031d4:	180f883a 	mov	r7,r3
  8031d8:	880b883a 	mov	r5,r17
  8031dc:	8009883a 	mov	r4,r16
  8031e0:	100d883a 	mov	r6,r2
  8031e4:	0804b7c0 	call	804b7c <__subdf3>
  8031e8:	d9000f17 	ldw	r4,60(sp)
  8031ec:	d9402e17 	ldw	r5,184(sp)
  8031f0:	180f883a 	mov	r7,r3
  8031f4:	100d883a 	mov	r6,r2
  8031f8:	0804c700 	call	804c70 <__muldf3>
  8031fc:	d9000317 	ldw	r4,12(sp)
  803200:	d9403017 	ldw	r5,192(sp)
  803204:	d8803115 	stw	r2,196(sp)
  803208:	200d883a 	mov	r6,r4
  80320c:	280f883a 	mov	r7,r5
  803210:	d8c03215 	stw	r3,200(sp)
  803214:	0804c700 	call	804c70 <__muldf3>
  803218:	1009883a 	mov	r4,r2
  80321c:	180b883a 	mov	r5,r3
  803220:	100d883a 	mov	r6,r2
  803224:	180f883a 	mov	r7,r3
  803228:	1021883a 	mov	r16,r2
  80322c:	1823883a 	mov	r17,r3
  803230:	0804c700 	call	804c70 <__muldf3>
  803234:	02129174 	movhi	r8,19013
  803238:	4213bbc4 	addi	r8,r8,20207
  80323c:	024ff2b4 	movhi	r9,16330
  803240:	4a5f8a04 	addi	r9,r9,32296
  803244:	480f883a 	mov	r7,r9
  803248:	8009883a 	mov	r4,r16
  80324c:	880b883a 	mov	r5,r17
  803250:	400d883a 	mov	r6,r8
  803254:	1029883a 	mov	r20,r2
  803258:	182b883a 	mov	r21,r3
  80325c:	0804c700 	call	804c70 <__muldf3>
  803260:	0224f2b4 	movhi	r8,37834
  803264:	4236d944 	addi	r8,r8,-9371
  803268:	024ff3b4 	movhi	r9,16334
  80326c:	4a619284 	addi	r9,r9,-31158
  803270:	480f883a 	mov	r7,r9
  803274:	400d883a 	mov	r6,r8
  803278:	180b883a 	mov	r5,r3
  80327c:	1009883a 	mov	r4,r2
  803280:	0804bfc0 	call	804bfc <__adddf3>
  803284:	180f883a 	mov	r7,r3
  803288:	8009883a 	mov	r4,r16
  80328c:	880b883a 	mov	r5,r17
  803290:	100d883a 	mov	r6,r2
  803294:	0804c700 	call	804c70 <__muldf3>
  803298:	022a4774 	movhi	r8,43293
  80329c:	42104044 	addi	r8,r8,16641
  8032a0:	024ff474 	movhi	r9,16337
  8032a4:	4a5d1804 	addi	r9,r9,29792
  8032a8:	480f883a 	mov	r7,r9
  8032ac:	400d883a 	mov	r6,r8
  8032b0:	180b883a 	mov	r5,r3
  8032b4:	1009883a 	mov	r4,r2
  8032b8:	0804bfc0 	call	804bfc <__adddf3>
  8032bc:	180f883a 	mov	r7,r3
  8032c0:	8009883a 	mov	r4,r16
  8032c4:	880b883a 	mov	r5,r17
  8032c8:	100d883a 	mov	r6,r2
  8032cc:	0804c700 	call	804c70 <__muldf3>
  8032d0:	021463f4 	movhi	r8,20879
  8032d4:	42099344 	addi	r8,r8,9805
  8032d8:	024ff574 	movhi	r9,16341
  8032dc:	4a555544 	addi	r9,r9,21845
  8032e0:	480f883a 	mov	r7,r9
  8032e4:	400d883a 	mov	r6,r8
  8032e8:	180b883a 	mov	r5,r3
  8032ec:	1009883a 	mov	r4,r2
  8032f0:	0804bfc0 	call	804bfc <__adddf3>
  8032f4:	180f883a 	mov	r7,r3
  8032f8:	8009883a 	mov	r4,r16
  8032fc:	880b883a 	mov	r5,r17
  803300:	100d883a 	mov	r6,r2
  803304:	0804c700 	call	804c70 <__muldf3>
  803308:	0236dc34 	movhi	r8,56176
  80330c:	422affc4 	addi	r8,r8,-21505
  803310:	024ff6f4 	movhi	r9,16347
  803314:	4a5b6d84 	addi	r9,r9,28086
  803318:	480f883a 	mov	r7,r9
  80331c:	400d883a 	mov	r6,r8
  803320:	180b883a 	mov	r5,r3
  803324:	1009883a 	mov	r4,r2
  803328:	0804bfc0 	call	804bfc <__adddf3>
  80332c:	180f883a 	mov	r7,r3
  803330:	8009883a 	mov	r4,r16
  803334:	880b883a 	mov	r5,r17
  803338:	100d883a 	mov	r6,r2
  80333c:	0804c700 	call	804c70 <__muldf3>
  803340:	020cccf4 	movhi	r8,13107
  803344:	420cc0c4 	addi	r8,r8,13059
  803348:	024ff8f4 	movhi	r9,16355
  80334c:	4a4cccc4 	addi	r9,r9,13107
  803350:	480f883a 	mov	r7,r9
  803354:	400d883a 	mov	r6,r8
  803358:	180b883a 	mov	r5,r3
  80335c:	1009883a 	mov	r4,r2
  803360:	0804bfc0 	call	804bfc <__adddf3>
  803364:	180f883a 	mov	r7,r3
  803368:	a80b883a 	mov	r5,r21
  80336c:	a009883a 	mov	r4,r20
  803370:	100d883a 	mov	r6,r2
  803374:	0804c700 	call	804c70 <__muldf3>
  803378:	d9000317 	ldw	r4,12(sp)
  80337c:	d9403017 	ldw	r5,192(sp)
  803380:	d9801617 	ldw	r6,88(sp)
  803384:	d9c02717 	ldw	r7,156(sp)
  803388:	1021883a 	mov	r16,r2
  80338c:	1823883a 	mov	r17,r3
  803390:	0804bfc0 	call	804bfc <__adddf3>
  803394:	d9003117 	ldw	r4,196(sp)
  803398:	d9403217 	ldw	r5,200(sp)
  80339c:	180f883a 	mov	r7,r3
  8033a0:	100d883a 	mov	r6,r2
  8033a4:	d9001415 	stw	r4,80(sp)
  8033a8:	d9401515 	stw	r5,84(sp)
  8033ac:	0804c700 	call	804c70 <__muldf3>
  8033b0:	180f883a 	mov	r7,r3
  8033b4:	8009883a 	mov	r4,r16
  8033b8:	880b883a 	mov	r5,r17
  8033bc:	100d883a 	mov	r6,r2
  8033c0:	0804bfc0 	call	804bfc <__adddf3>
  8033c4:	d9001617 	ldw	r4,88(sp)
  8033c8:	d9402717 	ldw	r5,156(sp)
  8033cc:	d8803315 	stw	r2,204(sp)
  8033d0:	200d883a 	mov	r6,r4
  8033d4:	280f883a 	mov	r7,r5
  8033d8:	d8c03415 	stw	r3,208(sp)
  8033dc:	0804c700 	call	804c70 <__muldf3>
  8033e0:	182f883a 	mov	r23,r3
  8033e4:	05500234 	movhi	r21,16392
  8033e8:	0029883a 	mov	r20,zero
  8033ec:	b80b883a 	mov	r5,r23
  8033f0:	a00d883a 	mov	r6,r20
  8033f4:	a80f883a 	mov	r7,r21
  8033f8:	1009883a 	mov	r4,r2
  8033fc:	d8800715 	stw	r2,28(sp)
  803400:	d8c00815 	stw	r3,32(sp)
  803404:	0804bfc0 	call	804bfc <__adddf3>
  803408:	d9003317 	ldw	r4,204(sp)
  80340c:	d9403417 	ldw	r5,208(sp)
  803410:	180f883a 	mov	r7,r3
  803414:	100d883a 	mov	r6,r2
  803418:	d9000515 	stw	r4,20(sp)
  80341c:	d9400615 	stw	r5,24(sp)
  803420:	0804bfc0 	call	804bfc <__adddf3>
  803424:	d9001617 	ldw	r4,88(sp)
  803428:	d9402717 	ldw	r5,156(sp)
  80342c:	0025883a 	mov	r18,zero
  803430:	900d883a 	mov	r6,r18
  803434:	180f883a 	mov	r7,r3
  803438:	1823883a 	mov	r17,r3
  80343c:	0804c700 	call	804c70 <__muldf3>
  803440:	d9001417 	ldw	r4,80(sp)
  803444:	d9403217 	ldw	r5,200(sp)
  803448:	880f883a 	mov	r7,r17
  80344c:	900d883a 	mov	r6,r18
  803450:	d8803515 	stw	r2,212(sp)
  803454:	d8c03615 	stw	r3,216(sp)
  803458:	0804c700 	call	804c70 <__muldf3>
  80345c:	a80f883a 	mov	r7,r21
  803460:	880b883a 	mov	r5,r17
  803464:	000d883a 	mov	r6,zero
  803468:	9009883a 	mov	r4,r18
  80346c:	1021883a 	mov	r16,r2
  803470:	1823883a 	mov	r17,r3
  803474:	0804b7c0 	call	804b7c <__subdf3>
  803478:	d9800717 	ldw	r6,28(sp)
  80347c:	b80f883a 	mov	r7,r23
  803480:	180b883a 	mov	r5,r3
  803484:	1009883a 	mov	r4,r2
  803488:	0804b7c0 	call	804b7c <__subdf3>
  80348c:	d9000517 	ldw	r4,20(sp)
  803490:	d9403417 	ldw	r5,208(sp)
  803494:	180f883a 	mov	r7,r3
  803498:	100d883a 	mov	r6,r2
  80349c:	0804b7c0 	call	804b7c <__subdf3>
  8034a0:	d9000317 	ldw	r4,12(sp)
  8034a4:	d9403017 	ldw	r5,192(sp)
  8034a8:	180f883a 	mov	r7,r3
  8034ac:	100d883a 	mov	r6,r2
  8034b0:	0804c700 	call	804c70 <__muldf3>
  8034b4:	180f883a 	mov	r7,r3
  8034b8:	880b883a 	mov	r5,r17
  8034bc:	8009883a 	mov	r4,r16
  8034c0:	100d883a 	mov	r6,r2
  8034c4:	0804bfc0 	call	804bfc <__adddf3>
  8034c8:	102d883a 	mov	r22,r2
  8034cc:	d9003617 	ldw	r4,216(sp)
  8034d0:	d8803517 	ldw	r2,212(sp)
  8034d4:	d9403617 	ldw	r5,216(sp)
  8034d8:	182f883a 	mov	r23,r3
  8034dc:	b00d883a 	mov	r6,r22
  8034e0:	b80f883a 	mov	r7,r23
  8034e4:	d9000a15 	stw	r4,40(sp)
  8034e8:	1009883a 	mov	r4,r2
  8034ec:	054ffbf4 	movhi	r21,16367
  8034f0:	ad71c244 	addi	r21,r21,-14583
  8034f4:	dd800d15 	stw	r22,52(sp)
  8034f8:	ddc00e15 	stw	r23,56(sp)
  8034fc:	05380034 	movhi	r20,57344
  803500:	d8800915 	stw	r2,36(sp)
  803504:	0804bfc0 	call	804bfc <__adddf3>
  803508:	180b883a 	mov	r5,r3
  80350c:	a00d883a 	mov	r6,r20
  803510:	a80f883a 	mov	r7,r21
  803514:	9009883a 	mov	r4,r18
  803518:	1823883a 	mov	r17,r3
  80351c:	0804c700 	call	804c70 <__muldf3>
  803520:	020516f4 	movhi	r8,5211
  803524:	42007d44 	addi	r8,r8,501
  803528:	026f8fb4 	movhi	r9,48702
  80352c:	4a4bf804 	addi	r9,r9,12256
  803530:	480f883a 	mov	r7,r9
  803534:	400d883a 	mov	r6,r8
  803538:	880b883a 	mov	r5,r17
  80353c:	9009883a 	mov	r4,r18
  803540:	d8803715 	stw	r2,220(sp)
  803544:	d8c03815 	stw	r3,224(sp)
  803548:	0804c700 	call	804c70 <__muldf3>
  80354c:	d9800917 	ldw	r6,36(sp)
  803550:	d9c03617 	ldw	r7,216(sp)
  803554:	880b883a 	mov	r5,r17
  803558:	9009883a 	mov	r4,r18
  80355c:	1021883a 	mov	r16,r2
  803560:	1823883a 	mov	r17,r3
  803564:	0804b7c0 	call	804b7c <__subdf3>
  803568:	d9000d17 	ldw	r4,52(sp)
  80356c:	b80b883a 	mov	r5,r23
  803570:	180f883a 	mov	r7,r3
  803574:	100d883a 	mov	r6,r2
  803578:	0804b7c0 	call	804b7c <__subdf3>
  80357c:	180b883a 	mov	r5,r3
  803580:	a80f883a 	mov	r7,r21
  803584:	01b70eb4 	movhi	r6,56378
  803588:	3180ff44 	addi	r6,r6,1021
  80358c:	1009883a 	mov	r4,r2
  803590:	0804c700 	call	804c70 <__muldf3>
  803594:	180f883a 	mov	r7,r3
  803598:	880b883a 	mov	r5,r17
  80359c:	8009883a 	mov	r4,r16
  8035a0:	100d883a 	mov	r6,r2
  8035a4:	0804bfc0 	call	804bfc <__adddf3>
  8035a8:	d9402c17 	ldw	r5,176(sp)
  8035ac:	010020b4 	movhi	r4,130
  8035b0:	2132c004 	addi	r4,r4,-13568
  8035b4:	2909883a 	add	r4,r5,r4
  8035b8:	22400117 	ldw	r9,4(r4)
  8035bc:	22000017 	ldw	r8,0(r4)
  8035c0:	180b883a 	mov	r5,r3
  8035c4:	480f883a 	mov	r7,r9
  8035c8:	400d883a 	mov	r6,r8
  8035cc:	1009883a 	mov	r4,r2
  8035d0:	0804bfc0 	call	804bfc <__adddf3>
  8035d4:	d9000017 	ldw	r4,0(sp)
  8035d8:	182f883a 	mov	r23,r3
  8035dc:	102d883a 	mov	r22,r2
  8035e0:	08055340 	call	805534 <__floatsidf>
  8035e4:	d9402c17 	ldw	r5,176(sp)
  8035e8:	010020b4 	movhi	r4,130
  8035ec:	2132c404 	addi	r4,r4,-13552
  8035f0:	b00d883a 	mov	r6,r22
  8035f4:	2911883a 	add	r8,r5,r4
  8035f8:	d9003717 	ldw	r4,220(sp)
  8035fc:	d9403817 	ldw	r5,224(sp)
  803600:	45000017 	ldw	r20,0(r8)
  803604:	d9002315 	stw	r4,140(sp)
  803608:	d9003817 	ldw	r4,224(sp)
  80360c:	45400117 	ldw	r21,4(r8)
  803610:	b80f883a 	mov	r7,r23
  803614:	d9002415 	stw	r4,144(sp)
  803618:	d9002317 	ldw	r4,140(sp)
  80361c:	1021883a 	mov	r16,r2
  803620:	1823883a 	mov	r17,r3
  803624:	dd802115 	stw	r22,132(sp)
  803628:	ddc02215 	stw	r23,136(sp)
  80362c:	0804bfc0 	call	804bfc <__adddf3>
  803630:	180b883a 	mov	r5,r3
  803634:	1009883a 	mov	r4,r2
  803638:	a00d883a 	mov	r6,r20
  80363c:	a80f883a 	mov	r7,r21
  803640:	0804bfc0 	call	804bfc <__adddf3>
  803644:	180f883a 	mov	r7,r3
  803648:	8009883a 	mov	r4,r16
  80364c:	880b883a 	mov	r5,r17
  803650:	100d883a 	mov	r6,r2
  803654:	0804bfc0 	call	804bfc <__adddf3>
  803658:	180b883a 	mov	r5,r3
  80365c:	0009883a 	mov	r4,zero
  803660:	800d883a 	mov	r6,r16
  803664:	880f883a 	mov	r7,r17
  803668:	d9001b15 	stw	r4,108(sp)
  80366c:	d8c01c15 	stw	r3,112(sp)
  803670:	0804b7c0 	call	804b7c <__subdf3>
  803674:	180b883a 	mov	r5,r3
  803678:	a80f883a 	mov	r7,r21
  80367c:	1009883a 	mov	r4,r2
  803680:	a00d883a 	mov	r6,r20
  803684:	0804b7c0 	call	804b7c <__subdf3>
  803688:	d9802317 	ldw	r6,140(sp)
  80368c:	d9c03817 	ldw	r7,224(sp)
  803690:	180b883a 	mov	r5,r3
  803694:	1009883a 	mov	r4,r2
  803698:	0804b7c0 	call	804b7c <__subdf3>
  80369c:	d9002117 	ldw	r4,132(sp)
  8036a0:	1011883a 	mov	r8,r2
  8036a4:	1813883a 	mov	r9,r3
  8036a8:	b80b883a 	mov	r5,r23
  8036ac:	480f883a 	mov	r7,r9
  8036b0:	400d883a 	mov	r6,r8
  8036b4:	0804b7c0 	call	804b7c <__subdf3>
  8036b8:	1823883a 	mov	r17,r3
  8036bc:	d8c02517 	ldw	r3,148(sp)
  8036c0:	1021883a 	mov	r16,r2
  8036c4:	e0bfffc4 	addi	r2,fp,-1
  8036c8:	1884b03a 	or	r2,r3,r2
  8036cc:	1000731e 	bne	r2,zero,80389c <__ieee754_pow+0xb88>
  8036d0:	0009883a 	mov	r4,zero
  8036d4:	016ffc34 	movhi	r5,49136
  8036d8:	d9001915 	stw	r4,100(sp)
  8036dc:	d9401a15 	stw	r5,104(sp)
  8036e0:	d9402917 	ldw	r5,164(sp)
  8036e4:	d9002817 	ldw	r4,160(sp)
  8036e8:	0029883a 	mov	r20,zero
  8036ec:	a00d883a 	mov	r6,r20
  8036f0:	280f883a 	mov	r7,r5
  8036f4:	2827883a 	mov	r19,r5
  8036f8:	0804b7c0 	call	804b7c <__subdf3>
  8036fc:	d9001b17 	ldw	r4,108(sp)
  803700:	d9401c17 	ldw	r5,112(sp)
  803704:	180f883a 	mov	r7,r3
  803708:	100d883a 	mov	r6,r2
  80370c:	0804c700 	call	804c70 <__muldf3>
  803710:	d9c02917 	ldw	r7,164(sp)
  803714:	d9802817 	ldw	r6,160(sp)
  803718:	880b883a 	mov	r5,r17
  80371c:	8009883a 	mov	r4,r16
  803720:	1823883a 	mov	r17,r3
  803724:	1021883a 	mov	r16,r2
  803728:	0804c700 	call	804c70 <__muldf3>
  80372c:	180f883a 	mov	r7,r3
  803730:	880b883a 	mov	r5,r17
  803734:	8009883a 	mov	r4,r16
  803738:	100d883a 	mov	r6,r2
  80373c:	0804bfc0 	call	804bfc <__adddf3>
  803740:	d9401c17 	ldw	r5,112(sp)
  803744:	d9001b17 	ldw	r4,108(sp)
  803748:	a00d883a 	mov	r6,r20
  80374c:	980f883a 	mov	r7,r19
  803750:	1029883a 	mov	r20,r2
  803754:	182b883a 	mov	r21,r3
  803758:	0804c700 	call	804c70 <__muldf3>
  80375c:	1025883a 	mov	r18,r2
  803760:	1827883a 	mov	r19,r3
  803764:	a009883a 	mov	r4,r20
  803768:	a80b883a 	mov	r5,r21
  80376c:	900d883a 	mov	r6,r18
  803770:	980f883a 	mov	r7,r19
  803774:	dd001d15 	stw	r20,116(sp)
  803778:	dc801f15 	stw	r18,124(sp)
  80377c:	dd401e15 	stw	r21,120(sp)
  803780:	dcc02015 	stw	r19,128(sp)
  803784:	0804bfc0 	call	804bfc <__adddf3>
  803788:	1823883a 	mov	r17,r3
  80378c:	01102434 	movhi	r4,16528
  803790:	213fffc4 	addi	r4,r4,-1
  803794:	1021883a 	mov	r16,r2
  803798:	182f883a 	mov	r23,r3
  80379c:	dc401815 	stw	r17,96(sp)
  8037a0:	100b883a 	mov	r5,r2
  8037a4:	20c02c0e 	bge	r4,r3,803858 <__ieee754_pow+0xb44>
  8037a8:	00afdc34 	movhi	r2,49008
  8037ac:	1885883a 	add	r2,r3,r2
  8037b0:	2884b03a 	or	r2,r5,r2
  8037b4:	1001a626 	beq	r2,zero,803e50 <__ieee754_pow+0x113c>
  8037b8:	04220034 	movhi	r16,34816
  8037bc:	841d6704 	addi	r16,r16,30108
  8037c0:	045f8e34 	movhi	r17,32312
  8037c4:	8c790f04 	addi	r17,r17,-7108
  8037c8:	d9401a17 	ldw	r5,104(sp)
  8037cc:	d9001917 	ldw	r4,100(sp)
  8037d0:	800d883a 	mov	r6,r16
  8037d4:	880f883a 	mov	r7,r17
  8037d8:	0804c700 	call	804c70 <__muldf3>
  8037dc:	180b883a 	mov	r5,r3
  8037e0:	800d883a 	mov	r6,r16
  8037e4:	880f883a 	mov	r7,r17
  8037e8:	1009883a 	mov	r4,r2
  8037ec:	0804c700 	call	804c70 <__muldf3>
  8037f0:	003dc306 	br	802f00 <__ieee754_pow+0x1ec>
  8037f4:	00b00434 	movhi	r2,49168
  8037f8:	9085883a 	add	r2,r18,r2
  8037fc:	e084b03a 	or	r2,fp,r2
  803800:	1000af1e 	bne	r2,zero,803ac0 <__ieee754_pow+0xdac>
  803804:	480f883a 	mov	r7,r9
  803808:	4009883a 	mov	r4,r8
  80380c:	480b883a 	mov	r5,r9
  803810:	400d883a 	mov	r6,r8
  803814:	003db406 	br	802ee8 <__ieee754_pow+0x1d4>
  803818:	00bffc34 	movhi	r2,65520
  80381c:	18ff0084 	addi	r3,r3,-1022
  803820:	a0a9883a 	add	r20,r20,r2
  803824:	d8c00015 	stw	r3,0(sp)
  803828:	0009883a 	mov	r4,zero
  80382c:	04000234 	movhi	r16,8
  803830:	003e1406 	br	803084 <__ieee754_pow+0x370>
  803834:	a80f883a 	mov	r7,r21
  803838:	a009883a 	mov	r4,r20
  80383c:	a80b883a 	mov	r5,r21
  803840:	a00d883a 	mov	r6,r20
  803844:	0804c700 	call	804c70 <__muldf3>
  803848:	180b883a 	mov	r5,r3
  80384c:	d8802815 	stw	r2,160(sp)
  803850:	d9402915 	stw	r5,164(sp)
  803854:	003d5606 	br	802db0 <__ieee754_pow+0x9c>
  803858:	d9001817 	ldw	r4,96(sp)
  80385c:	00a00034 	movhi	r2,32768
  803860:	10bfffc4 	addi	r2,r2,-1
  803864:	00d02474 	movhi	r3,16529
  803868:	18f2ffc4 	addi	r3,r3,-13313
  80386c:	20b8703a 	and	fp,r4,r2
  803870:	1f009d0e 	bge	r3,fp,803ae8 <__ieee754_pow+0xdd4>
  803874:	008fdbf4 	movhi	r2,16239
  803878:	108d0004 	addi	r2,r2,13312
  80387c:	2085883a 	add	r2,r4,r2
  803880:	1144b03a 	or	r2,r2,r5
  803884:	1001c626 	beq	r2,zero,803fa0 <__ieee754_pow+0x128c>
  803888:	0430be74 	movhi	r16,49913
  80388c:	843cd644 	addi	r16,r16,-3239
  803890:	04406974 	movhi	r17,421
  803894:	8c5b87c4 	addi	r17,r17,28191
  803898:	003fcb06 	br	8037c8 <__ieee754_pow+0xab4>
  80389c:	0005883a 	mov	r2,zero
  8038a0:	00cffc34 	movhi	r3,16368
  8038a4:	d8801915 	stw	r2,100(sp)
  8038a8:	d8c01a15 	stw	r3,104(sp)
  8038ac:	003f8c06 	br	8036e0 <__ieee754_pow+0x9cc>
  8038b0:	0005883a 	mov	r2,zero
  8038b4:	00cffc34 	movhi	r3,16368
  8038b8:	180b883a 	mov	r5,r3
  8038bc:	580f883a 	mov	r7,r11
  8038c0:	1009883a 	mov	r4,r2
  8038c4:	500d883a 	mov	r6,r10
  8038c8:	08050340 	call	805034 <__divdf3>
  8038cc:	1011883a 	mov	r8,r2
  8038d0:	1813883a 	mov	r9,r3
  8038d4:	003d9506 	br	802f2c <__ieee754_pow+0x218>
  8038d8:	008ffc34 	movhi	r2,16368
  8038dc:	10bfff84 	addi	r2,r2,-2
  8038e0:	14bdbb0e 	bge	r2,r18,802fd0 <__ieee754_pow+0x2bc>
  8038e4:	008ffc34 	movhi	r2,16368
  8038e8:	14bdae16 	blt	r2,r18,802fa4 <__ieee754_pow+0x290>
  8038ec:	580b883a 	mov	r5,r11
  8038f0:	5009883a 	mov	r4,r10
  8038f4:	000d883a 	mov	r6,zero
  8038f8:	100f883a 	mov	r7,r2
  8038fc:	0804b7c0 	call	804b7c <__subdf3>
  803900:	1021883a 	mov	r16,r2
  803904:	1823883a 	mov	r17,r3
  803908:	00980034 	movhi	r2,24576
  80390c:	00cffdf4 	movhi	r3,16375
  803910:	18c551c4 	addi	r3,r3,5447
  803914:	8009883a 	mov	r4,r16
  803918:	880b883a 	mov	r5,r17
  80391c:	180f883a 	mov	r7,r3
  803920:	100d883a 	mov	r6,r2
  803924:	0804c700 	call	804c70 <__muldf3>
  803928:	023e17b4 	movhi	r8,63582
  80392c:	4237d104 	addi	r8,r8,-8380
  803930:	024f9574 	movhi	r9,15957
  803934:	4a6b82c4 	addi	r9,r9,-20981
  803938:	480f883a 	mov	r7,r9
  80393c:	400d883a 	mov	r6,r8
  803940:	8009883a 	mov	r4,r16
  803944:	880b883a 	mov	r5,r17
  803948:	102d883a 	mov	r22,r2
  80394c:	182f883a 	mov	r23,r3
  803950:	0804c700 	call	804c70 <__muldf3>
  803954:	8009883a 	mov	r4,r16
  803958:	880b883a 	mov	r5,r17
  80395c:	800d883a 	mov	r6,r16
  803960:	880f883a 	mov	r7,r17
  803964:	d8802a15 	stw	r2,168(sp)
  803968:	d8c02b15 	stw	r3,172(sp)
  80396c:	0804c700 	call	804c70 <__muldf3>
  803970:	0011883a 	mov	r8,zero
  803974:	026ff434 	movhi	r9,49104
  803978:	480f883a 	mov	r7,r9
  80397c:	8009883a 	mov	r4,r16
  803980:	880b883a 	mov	r5,r17
  803984:	400d883a 	mov	r6,r8
  803988:	1029883a 	mov	r20,r2
  80398c:	182b883a 	mov	r21,r3
  803990:	0804c700 	call	804c70 <__muldf3>
  803994:	02155574 	movhi	r8,21845
  803998:	42155544 	addi	r8,r8,21845
  80399c:	024ff574 	movhi	r9,16341
  8039a0:	4a555544 	addi	r9,r9,21845
  8039a4:	480f883a 	mov	r7,r9
  8039a8:	400d883a 	mov	r6,r8
  8039ac:	180b883a 	mov	r5,r3
  8039b0:	1009883a 	mov	r4,r2
  8039b4:	0804bfc0 	call	804bfc <__adddf3>
  8039b8:	180f883a 	mov	r7,r3
  8039bc:	8009883a 	mov	r4,r16
  8039c0:	880b883a 	mov	r5,r17
  8039c4:	100d883a 	mov	r6,r2
  8039c8:	0804c700 	call	804c70 <__muldf3>
  8039cc:	0011883a 	mov	r8,zero
  8039d0:	024ff834 	movhi	r9,16352
  8039d4:	480b883a 	mov	r5,r9
  8039d8:	4009883a 	mov	r4,r8
  8039dc:	180f883a 	mov	r7,r3
  8039e0:	100d883a 	mov	r6,r2
  8039e4:	0804b7c0 	call	804b7c <__subdf3>
  8039e8:	180f883a 	mov	r7,r3
  8039ec:	a80b883a 	mov	r5,r21
  8039f0:	a009883a 	mov	r4,r20
  8039f4:	100d883a 	mov	r6,r2
  8039f8:	0804c700 	call	804c70 <__muldf3>
  8039fc:	02194b34 	movhi	r8,25900
  803a00:	4220bf84 	addi	r8,r8,-32002
  803a04:	026ffdf4 	movhi	r9,49143
  803a08:	4a4551c4 	addi	r9,r9,5447
  803a0c:	480f883a 	mov	r7,r9
  803a10:	400d883a 	mov	r6,r8
  803a14:	180b883a 	mov	r5,r3
  803a18:	1009883a 	mov	r4,r2
  803a1c:	0804c700 	call	804c70 <__muldf3>
  803a20:	d9402b17 	ldw	r5,172(sp)
  803a24:	d9002a17 	ldw	r4,168(sp)
  803a28:	180f883a 	mov	r7,r3
  803a2c:	100d883a 	mov	r6,r2
  803a30:	0804bfc0 	call	804bfc <__adddf3>
  803a34:	100d883a 	mov	r6,r2
  803a38:	b009883a 	mov	r4,r22
  803a3c:	b80b883a 	mov	r5,r23
  803a40:	180f883a 	mov	r7,r3
  803a44:	1021883a 	mov	r16,r2
  803a48:	1823883a 	mov	r17,r3
  803a4c:	0804bfc0 	call	804bfc <__adddf3>
  803a50:	180b883a 	mov	r5,r3
  803a54:	0009883a 	mov	r4,zero
  803a58:	b00d883a 	mov	r6,r22
  803a5c:	b80f883a 	mov	r7,r23
  803a60:	d9001b15 	stw	r4,108(sp)
  803a64:	d8c01c15 	stw	r3,112(sp)
  803a68:	0804b7c0 	call	804b7c <__subdf3>
  803a6c:	1011883a 	mov	r8,r2
  803a70:	1813883a 	mov	r9,r3
  803a74:	8009883a 	mov	r4,r16
  803a78:	880b883a 	mov	r5,r17
  803a7c:	003f0b06 	br	8036ac <__ieee754_pow+0x998>
  803a80:	0005883a 	mov	r2,zero
  803a84:	00d0d034 	movhi	r3,17216
  803a88:	580b883a 	mov	r5,r11
  803a8c:	5009883a 	mov	r4,r10
  803a90:	180f883a 	mov	r7,r3
  803a94:	100d883a 	mov	r6,r2
  803a98:	0804c700 	call	804c70 <__muldf3>
  803a9c:	1015883a 	mov	r10,r2
  803aa0:	1825883a 	mov	r18,r3
  803aa4:	017ff2c4 	movi	r5,-53
  803aa8:	003d6606 	br	803044 <__ieee754_pow+0x330>
  803aac:	b03d300e 	bge	r22,zero,802f70 <__ieee754_pow+0x25c>
  803ab0:	d9402917 	ldw	r5,164(sp)
  803ab4:	28e0003c 	xorhi	r3,r5,32768
  803ab8:	d8c02915 	stw	r3,164(sp)
  803abc:	003cbc06 	br	802db0 <__ieee754_pow+0x9c>
  803ac0:	00800044 	movi	r2,1
  803ac4:	e0bd1a1e 	bne	fp,r2,802f30 <__ieee754_pow+0x21c>
  803ac8:	48e0003c 	xorhi	r3,r9,32768
  803acc:	da002815 	stw	r8,160(sp)
  803ad0:	d8c02915 	stw	r3,164(sp)
  803ad4:	003cb606 	br	802db0 <__ieee754_pow+0x9c>
  803ad8:	d9001817 	ldw	r4,96(sp)
  803adc:	00a00034 	movhi	r2,32768
  803ae0:	10bfffc4 	addi	r2,r2,-1
  803ae4:	20b8703a 	and	fp,r4,r2
  803ae8:	008ff834 	movhi	r2,16352
  803aec:	1700fc16 	blt	r2,fp,803ee0 <__ieee754_pow+0x11cc>
  803af0:	0039883a 	mov	fp,zero
  803af4:	d8001315 	stw	zero,76(sp)
  803af8:	0025883a 	mov	r18,zero
  803afc:	0005883a 	mov	r2,zero
  803b00:	00cff9b4 	movhi	r3,16358
  803b04:	18cb90c4 	addi	r3,r3,11843
  803b08:	9009883a 	mov	r4,r18
  803b0c:	b80b883a 	mov	r5,r23
  803b10:	180f883a 	mov	r7,r3
  803b14:	100d883a 	mov	r6,r2
  803b18:	0804c700 	call	804c70 <__muldf3>
  803b1c:	d9c02017 	ldw	r7,128(sp)
  803b20:	d9801f17 	ldw	r6,124(sp)
  803b24:	9009883a 	mov	r4,r18
  803b28:	b80b883a 	mov	r5,r23
  803b2c:	b823883a 	mov	r17,r23
  803b30:	102d883a 	mov	r22,r2
  803b34:	182f883a 	mov	r23,r3
  803b38:	0804b7c0 	call	804b7c <__subdf3>
  803b3c:	d9401e17 	ldw	r5,120(sp)
  803b40:	d9001d17 	ldw	r4,116(sp)
  803b44:	180f883a 	mov	r7,r3
  803b48:	100d883a 	mov	r6,r2
  803b4c:	0804b7c0 	call	804b7c <__subdf3>
  803b50:	023fbeb4 	movhi	r8,65274
  803b54:	420e7bc4 	addi	r8,r8,14831
  803b58:	024ff9b4 	movhi	r9,16358
  803b5c:	4a4b9084 	addi	r9,r9,11842
  803b60:	480f883a 	mov	r7,r9
  803b64:	400d883a 	mov	r6,r8
  803b68:	180b883a 	mov	r5,r3
  803b6c:	1009883a 	mov	r4,r2
  803b70:	0804c700 	call	804c70 <__muldf3>
  803b74:	02032a34 	movhi	r8,3240
  803b78:	421b0e44 	addi	r8,r8,27705
  803b7c:	026f8834 	movhi	r9,48672
  803b80:	4a571844 	addi	r9,r9,23649
  803b84:	480f883a 	mov	r7,r9
  803b88:	400d883a 	mov	r6,r8
  803b8c:	9009883a 	mov	r4,r18
  803b90:	880b883a 	mov	r5,r17
  803b94:	1021883a 	mov	r16,r2
  803b98:	1823883a 	mov	r17,r3
  803b9c:	0804c700 	call	804c70 <__muldf3>
  803ba0:	180f883a 	mov	r7,r3
  803ba4:	880b883a 	mov	r5,r17
  803ba8:	8009883a 	mov	r4,r16
  803bac:	100d883a 	mov	r6,r2
  803bb0:	0804bfc0 	call	804bfc <__adddf3>
  803bb4:	100d883a 	mov	r6,r2
  803bb8:	b009883a 	mov	r4,r22
  803bbc:	b80b883a 	mov	r5,r23
  803bc0:	180f883a 	mov	r7,r3
  803bc4:	1021883a 	mov	r16,r2
  803bc8:	1823883a 	mov	r17,r3
  803bcc:	0804bfc0 	call	804bfc <__adddf3>
  803bd0:	1009883a 	mov	r4,r2
  803bd4:	180b883a 	mov	r5,r3
  803bd8:	b00d883a 	mov	r6,r22
  803bdc:	b80f883a 	mov	r7,r23
  803be0:	d8803915 	stw	r2,228(sp)
  803be4:	d8c03a15 	stw	r3,232(sp)
  803be8:	d8801115 	stw	r2,68(sp)
  803bec:	d8c01215 	stw	r3,72(sp)
  803bf0:	0804b7c0 	call	804b7c <__subdf3>
  803bf4:	180f883a 	mov	r7,r3
  803bf8:	8009883a 	mov	r4,r16
  803bfc:	880b883a 	mov	r5,r17
  803c00:	100d883a 	mov	r6,r2
  803c04:	0804b7c0 	call	804b7c <__subdf3>
  803c08:	d9001117 	ldw	r4,68(sp)
  803c0c:	d9403a17 	ldw	r5,232(sp)
  803c10:	1029883a 	mov	r20,r2
  803c14:	200d883a 	mov	r6,r4
  803c18:	280f883a 	mov	r7,r5
  803c1c:	182b883a 	mov	r21,r3
  803c20:	0804c700 	call	804c70 <__muldf3>
  803c24:	1021883a 	mov	r16,r2
  803c28:	1823883a 	mov	r17,r3
  803c2c:	009caff4 	movhi	r2,29375
  803c30:	10a93404 	addi	r2,r2,-23344
  803c34:	00cf99b4 	movhi	r3,15974
  803c38:	18cdda44 	addi	r3,r3,14185
  803c3c:	8009883a 	mov	r4,r16
  803c40:	880b883a 	mov	r5,r17
  803c44:	180f883a 	mov	r7,r3
  803c48:	100d883a 	mov	r6,r2
  803c4c:	0804c700 	call	804c70 <__muldf3>
  803c50:	023174b4 	movhi	r8,50642
  803c54:	421afc44 	addi	r8,r8,27633
  803c58:	024faf34 	movhi	r9,16060
  803c5c:	4a6f5044 	addi	r9,r9,-17087
  803c60:	480f883a 	mov	r7,r9
  803c64:	400d883a 	mov	r6,r8
  803c68:	180b883a 	mov	r5,r3
  803c6c:	1009883a 	mov	r4,r2
  803c70:	0804b7c0 	call	804b7c <__subdf3>
  803c74:	180f883a 	mov	r7,r3
  803c78:	8009883a 	mov	r4,r16
  803c7c:	880b883a 	mov	r5,r17
  803c80:	100d883a 	mov	r6,r2
  803c84:	0804c700 	call	804c70 <__muldf3>
  803c88:	022bc9b4 	movhi	r8,44838
  803c8c:	42378b04 	addi	r8,r8,-8660
  803c90:	024fc474 	movhi	r9,16145
  803c94:	4a559a84 	addi	r9,r9,22122
  803c98:	480f883a 	mov	r7,r9
  803c9c:	400d883a 	mov	r6,r8
  803ca0:	180b883a 	mov	r5,r3
  803ca4:	1009883a 	mov	r4,r2
  803ca8:	0804bfc0 	call	804bfc <__adddf3>
  803cac:	180f883a 	mov	r7,r3
  803cb0:	8009883a 	mov	r4,r16
  803cb4:	880b883a 	mov	r5,r17
  803cb8:	100d883a 	mov	r6,r2
  803cbc:	0804c700 	call	804c70 <__muldf3>
  803cc0:	0205aff4 	movhi	r8,5823
  803cc4:	422f64c4 	addi	r8,r8,-17005
  803cc8:	024fd9f4 	movhi	r9,16231
  803ccc:	4a705b04 	addi	r9,r9,-16020
  803cd0:	480f883a 	mov	r7,r9
  803cd4:	400d883a 	mov	r6,r8
  803cd8:	180b883a 	mov	r5,r3
  803cdc:	1009883a 	mov	r4,r2
  803ce0:	0804b7c0 	call	804b7c <__subdf3>
  803ce4:	180f883a 	mov	r7,r3
  803ce8:	8009883a 	mov	r4,r16
  803cec:	880b883a 	mov	r5,r17
  803cf0:	100d883a 	mov	r6,r2
  803cf4:	0804c700 	call	804c70 <__muldf3>
  803cf8:	02155574 	movhi	r8,21845
  803cfc:	42154f84 	addi	r8,r8,21822
  803d00:	024ff174 	movhi	r9,16325
  803d04:	4a555544 	addi	r9,r9,21845
  803d08:	480f883a 	mov	r7,r9
  803d0c:	400d883a 	mov	r6,r8
  803d10:	180b883a 	mov	r5,r3
  803d14:	1009883a 	mov	r4,r2
  803d18:	0804bfc0 	call	804bfc <__adddf3>
  803d1c:	180f883a 	mov	r7,r3
  803d20:	8009883a 	mov	r4,r16
  803d24:	880b883a 	mov	r5,r17
  803d28:	100d883a 	mov	r6,r2
  803d2c:	0804c700 	call	804c70 <__muldf3>
  803d30:	d9001117 	ldw	r4,68(sp)
  803d34:	d9403a17 	ldw	r5,232(sp)
  803d38:	180f883a 	mov	r7,r3
  803d3c:	100d883a 	mov	r6,r2
  803d40:	0804b7c0 	call	804b7c <__subdf3>
  803d44:	d9001117 	ldw	r4,68(sp)
  803d48:	d9403a17 	ldw	r5,232(sp)
  803d4c:	100d883a 	mov	r6,r2
  803d50:	180f883a 	mov	r7,r3
  803d54:	1021883a 	mov	r16,r2
  803d58:	1823883a 	mov	r17,r3
  803d5c:	0804c700 	call	804c70 <__muldf3>
  803d60:	0011883a 	mov	r8,zero
  803d64:	02500034 	movhi	r9,16384
  803d68:	480f883a 	mov	r7,r9
  803d6c:	400d883a 	mov	r6,r8
  803d70:	8009883a 	mov	r4,r16
  803d74:	880b883a 	mov	r5,r17
  803d78:	1021883a 	mov	r16,r2
  803d7c:	1823883a 	mov	r17,r3
  803d80:	0804b7c0 	call	804b7c <__subdf3>
  803d84:	180f883a 	mov	r7,r3
  803d88:	880b883a 	mov	r5,r17
  803d8c:	8009883a 	mov	r4,r16
  803d90:	100d883a 	mov	r6,r2
  803d94:	08050340 	call	805034 <__divdf3>
  803d98:	d9001117 	ldw	r4,68(sp)
  803d9c:	d9403a17 	ldw	r5,232(sp)
  803da0:	a00d883a 	mov	r6,r20
  803da4:	a80f883a 	mov	r7,r21
  803da8:	1025883a 	mov	r18,r2
  803dac:	1827883a 	mov	r19,r3
  803db0:	0804c700 	call	804c70 <__muldf3>
  803db4:	180f883a 	mov	r7,r3
  803db8:	a009883a 	mov	r4,r20
  803dbc:	a80b883a 	mov	r5,r21
  803dc0:	100d883a 	mov	r6,r2
  803dc4:	0804bfc0 	call	804bfc <__adddf3>
  803dc8:	180f883a 	mov	r7,r3
  803dcc:	980b883a 	mov	r5,r19
  803dd0:	9009883a 	mov	r4,r18
  803dd4:	100d883a 	mov	r6,r2
  803dd8:	0804b7c0 	call	804b7c <__subdf3>
  803ddc:	d9801117 	ldw	r6,68(sp)
  803de0:	d9c03a17 	ldw	r7,232(sp)
  803de4:	180b883a 	mov	r5,r3
  803de8:	1009883a 	mov	r4,r2
  803dec:	0804b7c0 	call	804b7c <__subdf3>
  803df0:	0011883a 	mov	r8,zero
  803df4:	024ffc34 	movhi	r9,16368
  803df8:	480b883a 	mov	r5,r9
  803dfc:	180f883a 	mov	r7,r3
  803e00:	4009883a 	mov	r4,r8
  803e04:	100d883a 	mov	r6,r2
  803e08:	0804b7c0 	call	804b7c <__subdf3>
  803e0c:	100b883a 	mov	r5,r2
  803e10:	d8801317 	ldw	r2,76(sp)
  803e14:	10d5883a 	add	r10,r2,r3
  803e18:	5005d53a 	srai	r2,r10,20
  803e1c:	0080720e 	bge	zero,r2,803fe8 <__ieee754_pow+0x12d4>
  803e20:	2811883a 	mov	r8,r5
  803e24:	5013883a 	mov	r9,r10
  803e28:	d9c01a17 	ldw	r7,104(sp)
  803e2c:	d9801917 	ldw	r6,100(sp)
  803e30:	480b883a 	mov	r5,r9
  803e34:	4009883a 	mov	r4,r8
  803e38:	003e8206 	br	803844 <__ieee754_pow+0xb30>
  803e3c:	0009883a 	mov	r4,zero
  803e40:	800b883a 	mov	r5,r16
  803e44:	a80f883a 	mov	r7,r21
  803e48:	a00d883a 	mov	r6,r20
  803e4c:	003c2b06 	br	802efc <__ieee754_pow+0x1e8>
  803e50:	d9001d17 	ldw	r4,116(sp)
  803e54:	00994b34 	movhi	r2,25900
  803e58:	10a0bf84 	addi	r2,r2,-32002
  803e5c:	00cf25f4 	movhi	r3,15511
  803e60:	18c551c4 	addi	r3,r3,5447
  803e64:	a80b883a 	mov	r5,r21
  803e68:	180f883a 	mov	r7,r3
  803e6c:	100d883a 	mov	r6,r2
  803e70:	0804bfc0 	call	804bfc <__adddf3>
  803e74:	d9801f17 	ldw	r6,124(sp)
  803e78:	880b883a 	mov	r5,r17
  803e7c:	8009883a 	mov	r4,r16
  803e80:	980f883a 	mov	r7,r19
  803e84:	1021883a 	mov	r16,r2
  803e88:	1823883a 	mov	r17,r3
  803e8c:	0804b7c0 	call	804b7c <__subdf3>
  803e90:	180f883a 	mov	r7,r3
  803e94:	880b883a 	mov	r5,r17
  803e98:	8009883a 	mov	r4,r16
  803e9c:	100d883a 	mov	r6,r2
  803ea0:	080539c0 	call	80539c <__gtdf2>
  803ea4:	00bf0c0e 	bge	zero,r2,803ad8 <__ieee754_pow+0xdc4>
  803ea8:	04220034 	movhi	r16,34816
  803eac:	841d6704 	addi	r16,r16,30108
  803eb0:	045f8e34 	movhi	r17,32312
  803eb4:	8c790f04 	addi	r17,r17,-7108
  803eb8:	d9401a17 	ldw	r5,104(sp)
  803ebc:	d9001917 	ldw	r4,100(sp)
  803ec0:	800d883a 	mov	r6,r16
  803ec4:	880f883a 	mov	r7,r17
  803ec8:	0804c700 	call	804c70 <__muldf3>
  803ecc:	180b883a 	mov	r5,r3
  803ed0:	800d883a 	mov	r6,r16
  803ed4:	880f883a 	mov	r7,r17
  803ed8:	1009883a 	mov	r4,r2
  803edc:	003e5906 	br	803844 <__ieee754_pow+0xb30>
  803ee0:	e005d53a 	srai	r2,fp,20
  803ee4:	01800434 	movhi	r6,16
  803ee8:	d9401817 	ldw	r5,96(sp)
  803eec:	10bf0084 	addi	r2,r2,-1022
  803ef0:	308dd83a 	sra	r6,r6,r2
  803ef4:	02000434 	movhi	r8,16
  803ef8:	423fffc4 	addi	r8,r8,-1
  803efc:	0005883a 	mov	r2,zero
  803f00:	298d883a 	add	r6,r5,r6
  803f04:	318b883a 	add	r5,r6,r6
  803f08:	320e703a 	and	r7,r6,r8
  803f0c:	1013883a 	mov	r9,r2
  803f10:	280ad57a 	srli	r5,r5,21
  803f14:	d8801817 	ldw	r2,96(sp)
  803f18:	01000504 	movi	r4,20
  803f1c:	297f0044 	addi	r5,r5,-1023
  803f20:	4151d83a 	sra	r8,r8,r5
  803f24:	39c00434 	orhi	r7,r7,16
  803f28:	2149c83a 	sub	r4,r4,r5
  803f2c:	0210303a 	nor	r8,zero,r8
  803f30:	3939d83a 	sra	fp,r7,r4
  803f34:	320e703a 	and	r7,r6,r8
  803f38:	10002916 	blt	r2,zero,803fe0 <__ieee754_pow+0x12cc>
  803f3c:	d9402017 	ldw	r5,128(sp)
  803f40:	d9001f17 	ldw	r4,124(sp)
  803f44:	480d883a 	mov	r6,r9
  803f48:	0804b7c0 	call	804b7c <__subdf3>
  803f4c:	180b883a 	mov	r5,r3
  803f50:	d9402015 	stw	r5,128(sp)
  803f54:	280f883a 	mov	r7,r5
  803f58:	d9001d17 	ldw	r4,116(sp)
  803f5c:	d9401e17 	ldw	r5,120(sp)
  803f60:	1007883a 	mov	r3,r2
  803f64:	180d883a 	mov	r6,r3
  803f68:	d8801f15 	stw	r2,124(sp)
  803f6c:	0804bfc0 	call	804bfc <__adddf3>
  803f70:	180b883a 	mov	r5,r3
  803f74:	e006953a 	slli	r3,fp,20
  803f78:	282f883a 	mov	r23,r5
  803f7c:	d8c01315 	stw	r3,76(sp)
  803f80:	003edd06 	br	803af8 <__ieee754_pow+0xde4>
  803f84:	383bc81e 	bne	r7,zero,802ea8 <__ieee754_pow+0x194>
  803f88:	28c5c83a 	sub	r2,r5,r3
  803f8c:	8087d83a 	sra	r3,r16,r2
  803f90:	1884983a 	sll	r2,r3,r2
  803f94:	80801b26 	beq	r16,r2,804004 <__ieee754_pow+0x12f0>
  803f98:	0039883a 	mov	fp,zero
  803f9c:	003b9d06 	br	802e14 <__ieee754_pow+0x100>
  803fa0:	d9801f17 	ldw	r6,124(sp)
  803fa4:	8009883a 	mov	r4,r16
  803fa8:	880b883a 	mov	r5,r17
  803fac:	980f883a 	mov	r7,r19
  803fb0:	0804b7c0 	call	804b7c <__subdf3>
  803fb4:	d9001d17 	ldw	r4,116(sp)
  803fb8:	a80b883a 	mov	r5,r21
  803fbc:	180f883a 	mov	r7,r3
  803fc0:	100d883a 	mov	r6,r2
  803fc4:	08054ac0 	call	8054ac <__ledf2>
  803fc8:	00bfc516 	blt	zero,r2,803ee0 <__ieee754_pow+0x11cc>
  803fcc:	0430be74 	movhi	r16,49913
  803fd0:	843cd644 	addi	r16,r16,-3239
  803fd4:	04406974 	movhi	r17,421
  803fd8:	8c5b87c4 	addi	r17,r17,28191
  803fdc:	003fb606 	br	803eb8 <__ieee754_pow+0x11a4>
  803fe0:	0739c83a 	sub	fp,zero,fp
  803fe4:	003fd506 	br	803f3c <__ieee754_pow+0x1228>
  803fe8:	2809883a 	mov	r4,r5
  803fec:	e00d883a 	mov	r6,fp
  803ff0:	180b883a 	mov	r5,r3
  803ff4:	08045680 	call	804568 <scalbn>
  803ff8:	1011883a 	mov	r8,r2
  803ffc:	1813883a 	mov	r9,r3
  804000:	003f8906 	br	803e28 <__ieee754_pow+0x1114>
  804004:	18c0004c 	andi	r3,r3,1
  804008:	00800084 	movi	r2,2
  80400c:	10f9c83a 	sub	fp,r2,r3
  804010:	003b8006 	br	802e14 <__ieee754_pow+0x100>

00804014 <__ieee754_sqrt>:
  804014:	defffd04 	addi	sp,sp,-12
  804018:	dc000015 	stw	r16,0(sp)
  80401c:	009ffc34 	movhi	r2,32752
  804020:	2021883a 	mov	r16,r4
  804024:	291ffc2c 	andhi	r4,r5,32752
  804028:	dc400115 	stw	r17,4(sp)
  80402c:	dfc00215 	stw	ra,8(sp)
  804030:	2823883a 	mov	r17,r5
  804034:	280f883a 	mov	r7,r5
  804038:	2807883a 	mov	r3,r5
  80403c:	8011883a 	mov	r8,r16
  804040:	20807d26 	beq	r4,r2,804238 <__ieee754_sqrt+0x224>
  804044:	01408d0e 	bge	zero,r5,80427c <__ieee754_sqrt+0x268>
  804048:	380dd53a 	srai	r6,r7,20
  80404c:	3000131e 	bne	r6,zero,80409c <__ieee754_sqrt+0x88>
  804050:	1800041e 	bne	r3,zero,804064 <__ieee754_sqrt+0x50>
  804054:	400ed2fa 	srli	r7,r8,11
  804058:	31bffac4 	addi	r6,r6,-21
  80405c:	4010957a 	slli	r8,r8,21
  804060:	383ffc26 	beq	r7,zero,804054 <__ieee754_sqrt+0x40>
  804064:	3880042c 	andhi	r2,r7,16
  804068:	1000991e 	bne	r2,zero,8042d0 <__ieee754_sqrt+0x2bc>
  80406c:	0009883a 	mov	r4,zero
  804070:	39cf883a 	add	r7,r7,r7
  804074:	3880042c 	andhi	r2,r7,16
  804078:	21000044 	addi	r4,r4,1
  80407c:	103ffc26 	beq	r2,zero,804070 <__ieee754_sqrt+0x5c>
  804080:	00800804 	movi	r2,32
  804084:	1105c83a 	sub	r2,r2,r4
  804088:	4086d83a 	srl	r3,r8,r2
  80408c:	4110983a 	sll	r8,r8,r4
  804090:	3105c83a 	sub	r2,r6,r4
  804094:	38ceb03a 	or	r7,r7,r3
  804098:	11800044 	addi	r6,r2,1
  80409c:	31bf0044 	addi	r6,r6,-1023
  8040a0:	30c0004c 	andi	r3,r6,1
  8040a4:	00800434 	movhi	r2,16
  8040a8:	10bfffc4 	addi	r2,r2,-1
  8040ac:	3884703a 	and	r2,r7,r2
  8040b0:	1807003a 	cmpeq	r3,r3,zero
  8040b4:	11000434 	orhi	r4,r2,16
  8040b8:	18005426 	beq	r3,zero,80420c <__ieee754_sqrt+0x1f8>
  8040bc:	4004d7fa 	srli	r2,r8,31
  8040c0:	4207883a 	add	r3,r8,r8
  8040c4:	02800834 	movhi	r10,32
  8040c8:	1105883a 	add	r2,r2,r4
  8040cc:	2089883a 	add	r4,r4,r2
  8040d0:	0011883a 	mov	r8,zero
  8040d4:	000b883a 	mov	r5,zero
  8040d8:	0013883a 	mov	r9,zero
  8040dc:	02c00584 	movi	r11,22
  8040e0:	520f883a 	add	r7,r10,r8
  8040e4:	1804d7fa 	srli	r2,r3,31
  8040e8:	4a400044 	addi	r9,r9,1
  8040ec:	18c7883a 	add	r3,r3,r3
  8040f0:	21c00316 	blt	r4,r7,804100 <__ieee754_sqrt+0xec>
  8040f4:	21c9c83a 	sub	r4,r4,r7
  8040f8:	2a8b883a 	add	r5,r5,r10
  8040fc:	51d1883a 	add	r8,r10,r7
  804100:	1105883a 	add	r2,r2,r4
  804104:	5014d07a 	srli	r10,r10,1
  804108:	2089883a 	add	r4,r4,r2
  80410c:	4afff41e 	bne	r9,r11,8040e0 <__ieee754_sqrt+0xcc>
  804110:	02600034 	movhi	r9,32768
  804114:	0017883a 	mov	r11,zero
  804118:	0019883a 	mov	r12,zero
  80411c:	0015883a 	mov	r10,zero
  804120:	4821883a 	mov	r16,r9
  804124:	03c00804 	movi	r15,32
  804128:	00000806 	br	80414c <__ieee754_sqrt+0x138>
  80412c:	22003426 	beq	r4,r8,804200 <__ieee754_sqrt+0x1ec>
  804130:	1804d7fa 	srli	r2,r3,31
  804134:	52800044 	addi	r10,r10,1
  804138:	18c7883a 	add	r3,r3,r3
  80413c:	1105883a 	add	r2,r2,r4
  804140:	2089883a 	add	r4,r4,r2
  804144:	4812d07a 	srli	r9,r9,1
  804148:	53c01326 	beq	r10,r15,804198 <__ieee754_sqrt+0x184>
  80414c:	4acf883a 	add	r7,r9,r11
  804150:	413ff60e 	bge	r8,r4,80412c <__ieee754_sqrt+0x118>
  804154:	38a0002c 	andhi	r2,r7,32768
  804158:	3a57883a 	add	r11,r7,r9
  80415c:	14002426 	beq	r2,r16,8041f0 <__ieee754_sqrt+0x1dc>
  804160:	4005883a 	mov	r2,r8
  804164:	2209c83a 	sub	r4,r4,r8
  804168:	19c0012e 	bgeu	r3,r7,804170 <__ieee754_sqrt+0x15c>
  80416c:	213fffc4 	addi	r4,r4,-1
  804170:	19c7c83a 	sub	r3,r3,r7
  804174:	1011883a 	mov	r8,r2
  804178:	1804d7fa 	srli	r2,r3,31
  80417c:	52800044 	addi	r10,r10,1
  804180:	6259883a 	add	r12,r12,r9
  804184:	1105883a 	add	r2,r2,r4
  804188:	18c7883a 	add	r3,r3,r3
  80418c:	2089883a 	add	r4,r4,r2
  804190:	4812d07a 	srli	r9,r9,1
  804194:	53ffed1e 	bne	r10,r15,80414c <__ieee754_sqrt+0x138>
  804198:	20c4b03a 	or	r2,r4,r3
  80419c:	1000201e 	bne	r2,zero,804220 <__ieee754_sqrt+0x20c>
  8041a0:	600ed07a 	srli	r7,r12,1
  8041a4:	2880004c 	andi	r2,r5,1
  8041a8:	1005003a 	cmpeq	r2,r2,zero
  8041ac:	1000011e 	bne	r2,zero,8041b4 <__ieee754_sqrt+0x1a0>
  8041b0:	39e00034 	orhi	r7,r7,32768
  8041b4:	300dd07a 	srai	r6,r6,1
  8041b8:	280bd07a 	srai	r5,r5,1
  8041bc:	010ff834 	movhi	r4,16352
  8041c0:	300c953a 	slli	r6,r6,20
  8041c4:	290b883a 	add	r5,r5,r4
  8041c8:	3821883a 	mov	r16,r7
  8041cc:	299d883a 	add	r14,r5,r6
  8041d0:	7023883a 	mov	r17,r14
  8041d4:	8005883a 	mov	r2,r16
  8041d8:	8807883a 	mov	r3,r17
  8041dc:	dfc00217 	ldw	ra,8(sp)
  8041e0:	dc400117 	ldw	r17,4(sp)
  8041e4:	dc000017 	ldw	r16,0(sp)
  8041e8:	dec00304 	addi	sp,sp,12
  8041ec:	f800283a 	ret
  8041f0:	5884703a 	and	r2,r11,r2
  8041f4:	103fda1e 	bne	r2,zero,804160 <__ieee754_sqrt+0x14c>
  8041f8:	40800044 	addi	r2,r8,1
  8041fc:	003fd906 	br	804164 <__ieee754_sqrt+0x150>
  804200:	19ffd42e 	bgeu	r3,r7,804154 <__ieee754_sqrt+0x140>
  804204:	2011883a 	mov	r8,r4
  804208:	003fc906 	br	804130 <__ieee754_sqrt+0x11c>
  80420c:	4004d7fa 	srli	r2,r8,31
  804210:	4211883a 	add	r8,r8,r8
  804214:	1105883a 	add	r2,r2,r4
  804218:	2089883a 	add	r4,r4,r2
  80421c:	003fa706 	br	8040bc <__ieee754_sqrt+0xa8>
  804220:	00bfffc4 	movi	r2,-1
  804224:	60802726 	beq	r12,r2,8042c4 <__ieee754_sqrt+0x2b0>
  804228:	6080004c 	andi	r2,r12,1
  80422c:	6085883a 	add	r2,r12,r2
  804230:	100ed07a 	srli	r7,r2,1
  804234:	003fdb06 	br	8041a4 <__ieee754_sqrt+0x190>
  804238:	8009883a 	mov	r4,r16
  80423c:	800d883a 	mov	r6,r16
  804240:	0804c700 	call	804c70 <__muldf3>
  804244:	180f883a 	mov	r7,r3
  804248:	880b883a 	mov	r5,r17
  80424c:	8009883a 	mov	r4,r16
  804250:	100d883a 	mov	r6,r2
  804254:	0804bfc0 	call	804bfc <__adddf3>
  804258:	1021883a 	mov	r16,r2
  80425c:	1823883a 	mov	r17,r3
  804260:	8005883a 	mov	r2,r16
  804264:	8807883a 	mov	r3,r17
  804268:	dfc00217 	ldw	ra,8(sp)
  80426c:	dc400117 	ldw	r17,4(sp)
  804270:	dc000017 	ldw	r16,0(sp)
  804274:	dec00304 	addi	sp,sp,12
  804278:	f800283a 	ret
  80427c:	00a00034 	movhi	r2,32768
  804280:	10bfffc4 	addi	r2,r2,-1
  804284:	2884703a 	and	r2,r5,r2
  804288:	8084b03a 	or	r2,r16,r2
  80428c:	103fd126 	beq	r2,zero,8041d4 <__ieee754_sqrt+0x1c0>
  804290:	283f6d26 	beq	r5,zero,804048 <__ieee754_sqrt+0x34>
  804294:	280f883a 	mov	r7,r5
  804298:	8009883a 	mov	r4,r16
  80429c:	800d883a 	mov	r6,r16
  8042a0:	0804b7c0 	call	804b7c <__subdf3>
  8042a4:	1009883a 	mov	r4,r2
  8042a8:	180b883a 	mov	r5,r3
  8042ac:	100d883a 	mov	r6,r2
  8042b0:	180f883a 	mov	r7,r3
  8042b4:	08050340 	call	805034 <__divdf3>
  8042b8:	1021883a 	mov	r16,r2
  8042bc:	1823883a 	mov	r17,r3
  8042c0:	003fc406 	br	8041d4 <__ieee754_sqrt+0x1c0>
  8042c4:	29400044 	addi	r5,r5,1
  8042c8:	000f883a 	mov	r7,zero
  8042cc:	003fb506 	br	8041a4 <__ieee754_sqrt+0x190>
  8042d0:	0009883a 	mov	r4,zero
  8042d4:	00800804 	movi	r2,32
  8042d8:	003f6b06 	br	804088 <__ieee754_sqrt+0x74>

008042dc <fabs>:
  8042dc:	01e00034 	movhi	r7,32768
  8042e0:	39ffffc4 	addi	r7,r7,-1
  8042e4:	394e703a 	and	r7,r7,r5
  8042e8:	2005883a 	mov	r2,r4
  8042ec:	3807883a 	mov	r3,r7
  8042f0:	f800283a 	ret

008042f4 <finite>:
  8042f4:	00a00034 	movhi	r2,32768
  8042f8:	10bfffc4 	addi	r2,r2,-1
  8042fc:	2884703a 	and	r2,r5,r2
  804300:	01600434 	movhi	r5,32784
  804304:	1145883a 	add	r2,r2,r5
  804308:	1004d7fa 	srli	r2,r2,31
  80430c:	f800283a 	ret

00804310 <__isnand>:
  804310:	200d883a 	mov	r6,r4
  804314:	0109c83a 	sub	r4,zero,r4
  804318:	2188b03a 	or	r4,r4,r6
  80431c:	2008d7fa 	srli	r4,r4,31
  804320:	00a00034 	movhi	r2,32768
  804324:	10bfffc4 	addi	r2,r2,-1
  804328:	1144703a 	and	r2,r2,r5
  80432c:	2088b03a 	or	r4,r4,r2
  804330:	009ffc34 	movhi	r2,32752
  804334:	1105c83a 	sub	r2,r2,r4
  804338:	1004d7fa 	srli	r2,r2,31
  80433c:	f800283a 	ret

00804340 <matherr>:
  804340:	0005883a 	mov	r2,zero
  804344:	f800283a 	ret

00804348 <nan>:
  804348:	015ffe34 	movhi	r5,32760
  80434c:	0005883a 	mov	r2,zero
  804350:	2807883a 	mov	r3,r5
  804354:	f800283a 	ret

00804358 <rint>:
  804358:	2015883a 	mov	r10,r4
  80435c:	2809d53a 	srai	r4,r5,20
  804360:	defff904 	addi	sp,sp,-28
  804364:	034004c4 	movi	r13,19
  804368:	2101ffcc 	andi	r4,r4,2047
  80436c:	227f0044 	addi	r9,r4,-1023
  804370:	dc800415 	stw	r18,16(sp)
  804374:	dfc00615 	stw	ra,24(sp)
  804378:	dcc00515 	stw	r19,20(sp)
  80437c:	dc400315 	stw	r17,12(sp)
  804380:	dc000215 	stw	r16,8(sp)
  804384:	2817883a 	mov	r11,r5
  804388:	500d883a 	mov	r6,r10
  80438c:	2824d7fa 	srli	r18,r5,31
  804390:	6a403016 	blt	r13,r9,804454 <rint+0xfc>
  804394:	48004916 	blt	r9,zero,8044bc <rint+0x164>
  804398:	00800434 	movhi	r2,16
  80439c:	10bfffc4 	addi	r2,r2,-1
  8043a0:	1247d83a 	sra	r3,r2,r9
  8043a4:	2809883a 	mov	r4,r5
  8043a8:	1944703a 	and	r2,r3,r5
  8043ac:	5084b03a 	or	r2,r10,r2
  8043b0:	10001f26 	beq	r2,zero,804430 <rint+0xd8>
  8043b4:	180ad07a 	srli	r5,r3,1
  8043b8:	5944703a 	and	r2,r11,r5
  8043bc:	5084b03a 	or	r2,r10,r2
  8043c0:	10000626 	beq	r2,zero,8043dc <rint+0x84>
  8043c4:	4b406626 	beq	r9,r13,804560 <rint+0x208>
  8043c8:	00c000b4 	movhi	r3,2
  8043cc:	1a47d83a 	sra	r3,r3,r9
  8043d0:	0144303a 	nor	r2,zero,r5
  8043d4:	5884703a 	and	r2,r11,r2
  8043d8:	10c8b03a 	or	r4,r2,r3
  8043dc:	900690fa 	slli	r3,r18,3
  8043e0:	008020b4 	movhi	r2,130
  8043e4:	10b2c804 	addi	r2,r2,-13536
  8043e8:	200f883a 	mov	r7,r4
  8043ec:	1887883a 	add	r3,r3,r2
  8043f0:	1c000017 	ldw	r16,0(r3)
  8043f4:	1c400117 	ldw	r17,4(r3)
  8043f8:	8009883a 	mov	r4,r16
  8043fc:	880b883a 	mov	r5,r17
  804400:	0804bfc0 	call	804bfc <__adddf3>
  804404:	d8800015 	stw	r2,0(sp)
  804408:	d8c00115 	stw	r3,4(sp)
  80440c:	d8800017 	ldw	r2,0(sp)
  804410:	d8c00117 	ldw	r3,4(sp)
  804414:	880f883a 	mov	r7,r17
  804418:	800d883a 	mov	r6,r16
  80441c:	180b883a 	mov	r5,r3
  804420:	1009883a 	mov	r4,r2
  804424:	0804b7c0 	call	804b7c <__subdf3>
  804428:	1015883a 	mov	r10,r2
  80442c:	1817883a 	mov	r11,r3
  804430:	5005883a 	mov	r2,r10
  804434:	5807883a 	mov	r3,r11
  804438:	dfc00617 	ldw	ra,24(sp)
  80443c:	dcc00517 	ldw	r19,20(sp)
  804440:	dc800417 	ldw	r18,16(sp)
  804444:	dc400317 	ldw	r17,12(sp)
  804448:	dc000217 	ldw	r16,8(sp)
  80444c:	dec00704 	addi	sp,sp,28
  804450:	f800283a 	ret
  804454:	00800cc4 	movi	r2,51
  804458:	12400f16 	blt	r2,r9,804498 <rint+0x140>
  80445c:	213efb44 	addi	r4,r4,-1043
  804460:	00bfffc4 	movi	r2,-1
  804464:	1104d83a 	srl	r2,r2,r4
  804468:	5086703a 	and	r3,r10,r2
  80446c:	183ff026 	beq	r3,zero,804430 <rint+0xd8>
  804470:	100ad07a 	srli	r5,r2,1
  804474:	5144703a 	and	r2,r10,r5
  804478:	10000526 	beq	r2,zero,804490 <rint+0x138>
  80447c:	00d00034 	movhi	r3,16384
  804480:	1907d83a 	sra	r3,r3,r4
  804484:	0144303a 	nor	r2,zero,r5
  804488:	5084703a 	and	r2,r10,r2
  80448c:	10ccb03a 	or	r6,r2,r3
  804490:	5809883a 	mov	r4,r11
  804494:	003fd106 	br	8043dc <rint+0x84>
  804498:	00810004 	movi	r2,1024
  80449c:	48bfe41e 	bne	r9,r2,804430 <rint+0xd8>
  8044a0:	5009883a 	mov	r4,r10
  8044a4:	500d883a 	mov	r6,r10
  8044a8:	280f883a 	mov	r7,r5
  8044ac:	0804bfc0 	call	804bfc <__adddf3>
  8044b0:	1015883a 	mov	r10,r2
  8044b4:	1817883a 	mov	r11,r3
  8044b8:	003fdd06 	br	804430 <rint+0xd8>
  8044bc:	04e00034 	movhi	r19,32768
  8044c0:	9cffffc4 	addi	r19,r19,-1
  8044c4:	2cc4703a 	and	r2,r5,r19
  8044c8:	5084b03a 	or	r2,r10,r2
  8044cc:	103fd826 	beq	r2,zero,804430 <rint+0xd8>
  8044d0:	00c00434 	movhi	r3,16
  8044d4:	18ffffc4 	addi	r3,r3,-1
  8044d8:	28c6703a 	and	r3,r5,r3
  8044dc:	50c6b03a 	or	r3,r10,r3
  8044e0:	00cdc83a 	sub	r6,zero,r3
  8044e4:	900a90fa 	slli	r5,r18,3
  8044e8:	1986b03a 	or	r3,r3,r6
  8044ec:	010020b4 	movhi	r4,130
  8044f0:	2132c804 	addi	r4,r4,-13536
  8044f4:	1806d33a 	srli	r3,r3,12
  8044f8:	290b883a 	add	r5,r5,r4
  8044fc:	2c000017 	ldw	r16,0(r5)
  804500:	2c400117 	ldw	r17,4(r5)
  804504:	593fffac 	andhi	r4,r11,65534
  804508:	18c0022c 	andhi	r3,r3,8
  80450c:	1906b03a 	or	r3,r3,r4
  804510:	500d883a 	mov	r6,r10
  804514:	180f883a 	mov	r7,r3
  804518:	8009883a 	mov	r4,r16
  80451c:	880b883a 	mov	r5,r17
  804520:	0804bfc0 	call	804bfc <__adddf3>
  804524:	d8800015 	stw	r2,0(sp)
  804528:	d8c00115 	stw	r3,4(sp)
  80452c:	d8800017 	ldw	r2,0(sp)
  804530:	d8c00117 	ldw	r3,4(sp)
  804534:	880f883a 	mov	r7,r17
  804538:	800d883a 	mov	r6,r16
  80453c:	180b883a 	mov	r5,r3
  804540:	1009883a 	mov	r4,r2
  804544:	0804b7c0 	call	804b7c <__subdf3>
  804548:	901297fa 	slli	r9,r18,31
  80454c:	98d0703a 	and	r8,r19,r3
  804550:	1015883a 	mov	r10,r2
  804554:	4250b03a 	or	r8,r8,r9
  804558:	4017883a 	mov	r11,r8
  80455c:	003fb406 	br	804430 <rint+0xd8>
  804560:	01900034 	movhi	r6,16384
  804564:	003f9d06 	br	8043dc <rint+0x84>

00804568 <scalbn>:
  804568:	2011883a 	mov	r8,r4
  80456c:	291ffc2c 	andhi	r4,r5,32752
  804570:	2009d53a 	srai	r4,r4,20
  804574:	defffd04 	addi	sp,sp,-12
  804578:	dc000015 	stw	r16,0(sp)
  80457c:	dfc00215 	stw	ra,8(sp)
  804580:	dc400115 	stw	r17,4(sp)
  804584:	2813883a 	mov	r9,r5
  804588:	2815883a 	mov	r10,r5
  80458c:	3021883a 	mov	r16,r6
  804590:	2000281e 	bne	r4,zero,804634 <scalbn+0xcc>
  804594:	00a00034 	movhi	r2,32768
  804598:	10bfffc4 	addi	r2,r2,-1
  80459c:	2884703a 	and	r2,r5,r2
  8045a0:	4084b03a 	or	r2,r8,r2
  8045a4:	10001826 	beq	r2,zero,804608 <scalbn+0xa0>
  8045a8:	0005883a 	mov	r2,zero
  8045ac:	00d0d434 	movhi	r3,17232
  8045b0:	4009883a 	mov	r4,r8
  8045b4:	100d883a 	mov	r6,r2
  8045b8:	180f883a 	mov	r7,r3
  8045bc:	0804c700 	call	804c70 <__muldf3>
  8045c0:	100b883a 	mov	r5,r2
  8045c4:	1011883a 	mov	r8,r2
  8045c8:	00bffff4 	movhi	r2,65535
  8045cc:	108f2c04 	addi	r2,r2,15536
  8045d0:	180d883a 	mov	r6,r3
  8045d4:	1813883a 	mov	r9,r3
  8045d8:	8080120e 	bge	r16,r2,804624 <scalbn+0xbc>
  8045dc:	00b0be74 	movhi	r2,49913
  8045e0:	10bcd644 	addi	r2,r2,-3239
  8045e4:	00c06974 	movhi	r3,421
  8045e8:	18db87c4 	addi	r3,r3,28191
  8045ec:	2809883a 	mov	r4,r5
  8045f0:	180f883a 	mov	r7,r3
  8045f4:	300b883a 	mov	r5,r6
  8045f8:	100d883a 	mov	r6,r2
  8045fc:	0804c700 	call	804c70 <__muldf3>
  804600:	1011883a 	mov	r8,r2
  804604:	1813883a 	mov	r9,r3
  804608:	4005883a 	mov	r2,r8
  80460c:	4807883a 	mov	r3,r9
  804610:	dfc00217 	ldw	ra,8(sp)
  804614:	dc400117 	ldw	r17,4(sp)
  804618:	dc000017 	ldw	r16,0(sp)
  80461c:	dec00304 	addi	sp,sp,12
  804620:	f800283a 	ret
  804624:	189ffc2c 	andhi	r2,r3,32752
  804628:	1005d53a 	srai	r2,r2,20
  80462c:	1815883a 	mov	r10,r3
  804630:	113ff284 	addi	r4,r2,-54
  804634:	0081ffc4 	movi	r2,2047
  804638:	20801126 	beq	r4,r2,804680 <scalbn+0x118>
  80463c:	2409883a 	add	r4,r4,r16
  804640:	0081ff84 	movi	r2,2046
  804644:	11001c16 	blt	r2,r4,8046b8 <scalbn+0x150>
  804648:	0100290e 	bge	zero,r4,8046f0 <scalbn+0x188>
  80464c:	200a953a 	slli	r5,r4,20
  804650:	01200434 	movhi	r4,32784
  804654:	213fffc4 	addi	r4,r4,-1
  804658:	5108703a 	and	r4,r10,r4
  80465c:	2148b03a 	or	r4,r4,r5
  804660:	2013883a 	mov	r9,r4
  804664:	4005883a 	mov	r2,r8
  804668:	4807883a 	mov	r3,r9
  80466c:	dfc00217 	ldw	ra,8(sp)
  804670:	dc400117 	ldw	r17,4(sp)
  804674:	dc000017 	ldw	r16,0(sp)
  804678:	dec00304 	addi	sp,sp,12
  80467c:	f800283a 	ret
  804680:	480f883a 	mov	r7,r9
  804684:	4009883a 	mov	r4,r8
  804688:	480b883a 	mov	r5,r9
  80468c:	400d883a 	mov	r6,r8
  804690:	0804bfc0 	call	804bfc <__adddf3>
  804694:	1011883a 	mov	r8,r2
  804698:	1813883a 	mov	r9,r3
  80469c:	4005883a 	mov	r2,r8
  8046a0:	4807883a 	mov	r3,r9
  8046a4:	dfc00217 	ldw	ra,8(sp)
  8046a8:	dc400117 	ldw	r17,4(sp)
  8046ac:	dc000017 	ldw	r16,0(sp)
  8046b0:	dec00304 	addi	sp,sp,12
  8046b4:	f800283a 	ret
  8046b8:	04220034 	movhi	r16,34816
  8046bc:	841d6704 	addi	r16,r16,30108
  8046c0:	045f8e34 	movhi	r17,32312
  8046c4:	8c790f04 	addi	r17,r17,-7108
  8046c8:	480f883a 	mov	r7,r9
  8046cc:	400d883a 	mov	r6,r8
  8046d0:	8009883a 	mov	r4,r16
  8046d4:	880b883a 	mov	r5,r17
  8046d8:	08047480 	call	804748 <copysign>
  8046dc:	180b883a 	mov	r5,r3
  8046e0:	800d883a 	mov	r6,r16
  8046e4:	880f883a 	mov	r7,r17
  8046e8:	1009883a 	mov	r4,r2
  8046ec:	003fc306 	br	8045fc <scalbn+0x94>
  8046f0:	00bff284 	movi	r2,-54
  8046f4:	11000716 	blt	r2,r4,804714 <scalbn+0x1ac>
  8046f8:	00b0d414 	movui	r2,50000
  8046fc:	143fee16 	blt	r2,r16,8046b8 <scalbn+0x150>
  804700:	0430be74 	movhi	r16,49913
  804704:	843cd644 	addi	r16,r16,-3239
  804708:	04406974 	movhi	r17,421
  80470c:	8c5b87c4 	addi	r17,r17,28191
  804710:	003fed06 	br	8046c8 <scalbn+0x160>
  804714:	21000d84 	addi	r4,r4,54
  804718:	2008953a 	slli	r4,r4,20
  80471c:	01e00434 	movhi	r7,32784
  804720:	39ffffc4 	addi	r7,r7,-1
  804724:	51ce703a 	and	r7,r10,r7
  804728:	390eb03a 	or	r7,r7,r4
  80472c:	024f2434 	movhi	r9,15504
  804730:	4009883a 	mov	r4,r8
  804734:	0011883a 	mov	r8,zero
  804738:	380b883a 	mov	r5,r7
  80473c:	400d883a 	mov	r6,r8
  804740:	480f883a 	mov	r7,r9
  804744:	003fad06 	br	8045fc <scalbn+0x94>

00804748 <copysign>:
  804748:	3813883a 	mov	r9,r7
  80474c:	01e00034 	movhi	r7,32768
  804750:	39ffffc4 	addi	r7,r7,-1
  804754:	394e703a 	and	r7,r7,r5
  804758:	4aa0002c 	andhi	r10,r9,32768
  80475c:	3a8eb03a 	or	r7,r7,r10
  804760:	2005883a 	mov	r2,r4
  804764:	3807883a 	mov	r3,r7
  804768:	f800283a 	ret

0080476c <_fpadd_parts>:
  80476c:	defff804 	addi	sp,sp,-32
  804770:	dcc00315 	stw	r19,12(sp)
  804774:	2027883a 	mov	r19,r4
  804778:	21000017 	ldw	r4,0(r4)
  80477c:	00c00044 	movi	r3,1
  804780:	dd400515 	stw	r21,20(sp)
  804784:	dd000415 	stw	r20,16(sp)
  804788:	ddc00715 	stw	r23,28(sp)
  80478c:	dd800615 	stw	r22,24(sp)
  804790:	dc800215 	stw	r18,8(sp)
  804794:	dc400115 	stw	r17,4(sp)
  804798:	dc000015 	stw	r16,0(sp)
  80479c:	282b883a 	mov	r21,r5
  8047a0:	3029883a 	mov	r20,r6
  8047a4:	1900632e 	bgeu	r3,r4,804934 <_fpadd_parts+0x1c8>
  8047a8:	28800017 	ldw	r2,0(r5)
  8047ac:	1880812e 	bgeu	r3,r2,8049b4 <_fpadd_parts+0x248>
  8047b0:	00c00104 	movi	r3,4
  8047b4:	20c0dc26 	beq	r4,r3,804b28 <_fpadd_parts+0x3bc>
  8047b8:	10c07e26 	beq	r2,r3,8049b4 <_fpadd_parts+0x248>
  8047bc:	00c00084 	movi	r3,2
  8047c0:	10c06726 	beq	r2,r3,804960 <_fpadd_parts+0x1f4>
  8047c4:	20c07b26 	beq	r4,r3,8049b4 <_fpadd_parts+0x248>
  8047c8:	9dc00217 	ldw	r23,8(r19)
  8047cc:	28c00217 	ldw	r3,8(r5)
  8047d0:	9c400317 	ldw	r17,12(r19)
  8047d4:	2bc00317 	ldw	r15,12(r5)
  8047d8:	b8cdc83a 	sub	r6,r23,r3
  8047dc:	9c800417 	ldw	r18,16(r19)
  8047e0:	2c000417 	ldw	r16,16(r5)
  8047e4:	3009883a 	mov	r4,r6
  8047e8:	30009716 	blt	r6,zero,804a48 <_fpadd_parts+0x2dc>
  8047ec:	00800fc4 	movi	r2,63
  8047f0:	11806b16 	blt	r2,r6,8049a0 <_fpadd_parts+0x234>
  8047f4:	0100a40e 	bge	zero,r4,804a88 <_fpadd_parts+0x31c>
  8047f8:	35bff804 	addi	r22,r6,-32
  8047fc:	b000bc16 	blt	r22,zero,804af0 <_fpadd_parts+0x384>
  804800:	8596d83a 	srl	r11,r16,r22
  804804:	0019883a 	mov	r12,zero
  804808:	0013883a 	mov	r9,zero
  80480c:	01000044 	movi	r4,1
  804810:	0015883a 	mov	r10,zero
  804814:	b000be16 	blt	r22,zero,804b10 <_fpadd_parts+0x3a4>
  804818:	2590983a 	sll	r8,r4,r22
  80481c:	000f883a 	mov	r7,zero
  804820:	00bfffc4 	movi	r2,-1
  804824:	3889883a 	add	r4,r7,r2
  804828:	408b883a 	add	r5,r8,r2
  80482c:	21cd803a 	cmpltu	r6,r4,r7
  804830:	314b883a 	add	r5,r6,r5
  804834:	7904703a 	and	r2,r15,r4
  804838:	8146703a 	and	r3,r16,r5
  80483c:	10c4b03a 	or	r2,r2,r3
  804840:	10000226 	beq	r2,zero,80484c <_fpadd_parts+0xe0>
  804844:	02400044 	movi	r9,1
  804848:	0015883a 	mov	r10,zero
  80484c:	5a5eb03a 	or	r15,r11,r9
  804850:	62a0b03a 	or	r16,r12,r10
  804854:	99400117 	ldw	r5,4(r19)
  804858:	a8800117 	ldw	r2,4(r21)
  80485c:	28806e26 	beq	r5,r2,804a18 <_fpadd_parts+0x2ac>
  804860:	28006626 	beq	r5,zero,8049fc <_fpadd_parts+0x290>
  804864:	7c45c83a 	sub	r2,r15,r17
  804868:	7889803a 	cmpltu	r4,r15,r2
  80486c:	8487c83a 	sub	r3,r16,r18
  804870:	1909c83a 	sub	r4,r3,r4
  804874:	100d883a 	mov	r6,r2
  804878:	200f883a 	mov	r7,r4
  80487c:	38007716 	blt	r7,zero,804a5c <_fpadd_parts+0x2f0>
  804880:	a5c00215 	stw	r23,8(r20)
  804884:	a1c00415 	stw	r7,16(r20)
  804888:	a0000115 	stw	zero,4(r20)
  80488c:	a1800315 	stw	r6,12(r20)
  804890:	a2000317 	ldw	r8,12(r20)
  804894:	a2400417 	ldw	r9,16(r20)
  804898:	00bfffc4 	movi	r2,-1
  80489c:	408b883a 	add	r5,r8,r2
  8048a0:	2a09803a 	cmpltu	r4,r5,r8
  8048a4:	488d883a 	add	r6,r9,r2
  8048a8:	01c40034 	movhi	r7,4096
  8048ac:	39ffffc4 	addi	r7,r7,-1
  8048b0:	218d883a 	add	r6,r4,r6
  8048b4:	39801736 	bltu	r7,r6,804914 <_fpadd_parts+0x1a8>
  8048b8:	31c06526 	beq	r6,r7,804a50 <_fpadd_parts+0x2e4>
  8048bc:	a3000217 	ldw	r12,8(r20)
  8048c0:	4209883a 	add	r4,r8,r8
  8048c4:	00bfffc4 	movi	r2,-1
  8048c8:	220f803a 	cmpltu	r7,r4,r8
  8048cc:	4a4b883a 	add	r5,r9,r9
  8048d0:	394f883a 	add	r7,r7,r5
  8048d4:	2095883a 	add	r10,r4,r2
  8048d8:	3897883a 	add	r11,r7,r2
  8048dc:	510d803a 	cmpltu	r6,r10,r4
  8048e0:	6099883a 	add	r12,r12,r2
  8048e4:	32d7883a 	add	r11,r6,r11
  8048e8:	00840034 	movhi	r2,4096
  8048ec:	10bfffc4 	addi	r2,r2,-1
  8048f0:	2011883a 	mov	r8,r4
  8048f4:	3813883a 	mov	r9,r7
  8048f8:	a1000315 	stw	r4,12(r20)
  8048fc:	a1c00415 	stw	r7,16(r20)
  804900:	a3000215 	stw	r12,8(r20)
  804904:	12c00336 	bltu	r2,r11,804914 <_fpadd_parts+0x1a8>
  804908:	58bfed1e 	bne	r11,r2,8048c0 <_fpadd_parts+0x154>
  80490c:	00bfff84 	movi	r2,-2
  804910:	12bfeb2e 	bgeu	r2,r10,8048c0 <_fpadd_parts+0x154>
  804914:	a2800417 	ldw	r10,16(r20)
  804918:	008000c4 	movi	r2,3
  80491c:	00c80034 	movhi	r3,8192
  804920:	18ffffc4 	addi	r3,r3,-1
  804924:	a2400317 	ldw	r9,12(r20)
  804928:	a0800015 	stw	r2,0(r20)
  80492c:	1a802336 	bltu	r3,r10,8049bc <_fpadd_parts+0x250>
  804930:	a027883a 	mov	r19,r20
  804934:	9805883a 	mov	r2,r19
  804938:	ddc00717 	ldw	r23,28(sp)
  80493c:	dd800617 	ldw	r22,24(sp)
  804940:	dd400517 	ldw	r21,20(sp)
  804944:	dd000417 	ldw	r20,16(sp)
  804948:	dcc00317 	ldw	r19,12(sp)
  80494c:	dc800217 	ldw	r18,8(sp)
  804950:	dc400117 	ldw	r17,4(sp)
  804954:	dc000017 	ldw	r16,0(sp)
  804958:	dec00804 	addi	sp,sp,32
  80495c:	f800283a 	ret
  804960:	20fff41e 	bne	r4,r3,804934 <_fpadd_parts+0x1c8>
  804964:	31000015 	stw	r4,0(r6)
  804968:	98800117 	ldw	r2,4(r19)
  80496c:	30800115 	stw	r2,4(r6)
  804970:	98c00217 	ldw	r3,8(r19)
  804974:	30c00215 	stw	r3,8(r6)
  804978:	98800317 	ldw	r2,12(r19)
  80497c:	30800315 	stw	r2,12(r6)
  804980:	98c00417 	ldw	r3,16(r19)
  804984:	30c00415 	stw	r3,16(r6)
  804988:	98800117 	ldw	r2,4(r19)
  80498c:	28c00117 	ldw	r3,4(r5)
  804990:	3027883a 	mov	r19,r6
  804994:	10c4703a 	and	r2,r2,r3
  804998:	30800115 	stw	r2,4(r6)
  80499c:	003fe506 	br	804934 <_fpadd_parts+0x1c8>
  8049a0:	1dc02616 	blt	r3,r23,804a3c <_fpadd_parts+0x2d0>
  8049a4:	0023883a 	mov	r17,zero
  8049a8:	182f883a 	mov	r23,r3
  8049ac:	0025883a 	mov	r18,zero
  8049b0:	003fa806 	br	804854 <_fpadd_parts+0xe8>
  8049b4:	a827883a 	mov	r19,r21
  8049b8:	003fde06 	br	804934 <_fpadd_parts+0x1c8>
  8049bc:	01800044 	movi	r6,1
  8049c0:	500497fa 	slli	r2,r10,31
  8049c4:	4808d07a 	srli	r4,r9,1
  8049c8:	518ad83a 	srl	r5,r10,r6
  8049cc:	a2000217 	ldw	r8,8(r20)
  8049d0:	1108b03a 	or	r4,r2,r4
  8049d4:	0007883a 	mov	r3,zero
  8049d8:	4984703a 	and	r2,r9,r6
  8049dc:	208cb03a 	or	r6,r4,r2
  8049e0:	28ceb03a 	or	r7,r5,r3
  8049e4:	42000044 	addi	r8,r8,1
  8049e8:	a027883a 	mov	r19,r20
  8049ec:	a1c00415 	stw	r7,16(r20)
  8049f0:	a2000215 	stw	r8,8(r20)
  8049f4:	a1800315 	stw	r6,12(r20)
  8049f8:	003fce06 	br	804934 <_fpadd_parts+0x1c8>
  8049fc:	8bc5c83a 	sub	r2,r17,r15
  804a00:	8889803a 	cmpltu	r4,r17,r2
  804a04:	9407c83a 	sub	r3,r18,r16
  804a08:	1909c83a 	sub	r4,r3,r4
  804a0c:	100d883a 	mov	r6,r2
  804a10:	200f883a 	mov	r7,r4
  804a14:	003f9906 	br	80487c <_fpadd_parts+0x110>
  804a18:	8bc5883a 	add	r2,r17,r15
  804a1c:	1449803a 	cmpltu	r4,r2,r17
  804a20:	9407883a 	add	r3,r18,r16
  804a24:	20c9883a 	add	r4,r4,r3
  804a28:	a1400115 	stw	r5,4(r20)
  804a2c:	a5c00215 	stw	r23,8(r20)
  804a30:	a0800315 	stw	r2,12(r20)
  804a34:	a1000415 	stw	r4,16(r20)
  804a38:	003fb606 	br	804914 <_fpadd_parts+0x1a8>
  804a3c:	001f883a 	mov	r15,zero
  804a40:	0021883a 	mov	r16,zero
  804a44:	003f8306 	br	804854 <_fpadd_parts+0xe8>
  804a48:	018dc83a 	sub	r6,zero,r6
  804a4c:	003f6706 	br	8047ec <_fpadd_parts+0x80>
  804a50:	00bfff84 	movi	r2,-2
  804a54:	117faf36 	bltu	r2,r5,804914 <_fpadd_parts+0x1a8>
  804a58:	003f9806 	br	8048bc <_fpadd_parts+0x150>
  804a5c:	0005883a 	mov	r2,zero
  804a60:	1189c83a 	sub	r4,r2,r6
  804a64:	1105803a 	cmpltu	r2,r2,r4
  804a68:	01cbc83a 	sub	r5,zero,r7
  804a6c:	2885c83a 	sub	r2,r5,r2
  804a70:	01800044 	movi	r6,1
  804a74:	a1800115 	stw	r6,4(r20)
  804a78:	a5c00215 	stw	r23,8(r20)
  804a7c:	a1000315 	stw	r4,12(r20)
  804a80:	a0800415 	stw	r2,16(r20)
  804a84:	003f8206 	br	804890 <_fpadd_parts+0x124>
  804a88:	203f7226 	beq	r4,zero,804854 <_fpadd_parts+0xe8>
  804a8c:	35bff804 	addi	r22,r6,-32
  804a90:	b9af883a 	add	r23,r23,r6
  804a94:	b0003116 	blt	r22,zero,804b5c <_fpadd_parts+0x3f0>
  804a98:	959ad83a 	srl	r13,r18,r22
  804a9c:	001d883a 	mov	r14,zero
  804aa0:	000f883a 	mov	r7,zero
  804aa4:	01000044 	movi	r4,1
  804aa8:	0011883a 	mov	r8,zero
  804aac:	b0002516 	blt	r22,zero,804b44 <_fpadd_parts+0x3d8>
  804ab0:	2594983a 	sll	r10,r4,r22
  804ab4:	0013883a 	mov	r9,zero
  804ab8:	00bfffc4 	movi	r2,-1
  804abc:	4889883a 	add	r4,r9,r2
  804ac0:	508b883a 	add	r5,r10,r2
  804ac4:	224d803a 	cmpltu	r6,r4,r9
  804ac8:	314b883a 	add	r5,r6,r5
  804acc:	8904703a 	and	r2,r17,r4
  804ad0:	9146703a 	and	r3,r18,r5
  804ad4:	10c4b03a 	or	r2,r2,r3
  804ad8:	10000226 	beq	r2,zero,804ae4 <_fpadd_parts+0x378>
  804adc:	01c00044 	movi	r7,1
  804ae0:	0011883a 	mov	r8,zero
  804ae4:	69e2b03a 	or	r17,r13,r7
  804ae8:	7224b03a 	or	r18,r14,r8
  804aec:	003f5906 	br	804854 <_fpadd_parts+0xe8>
  804af0:	8407883a 	add	r3,r16,r16
  804af4:	008007c4 	movi	r2,31
  804af8:	1185c83a 	sub	r2,r2,r6
  804afc:	1886983a 	sll	r3,r3,r2
  804b00:	7996d83a 	srl	r11,r15,r6
  804b04:	8198d83a 	srl	r12,r16,r6
  804b08:	1ad6b03a 	or	r11,r3,r11
  804b0c:	003f3e06 	br	804808 <_fpadd_parts+0x9c>
  804b10:	2006d07a 	srli	r3,r4,1
  804b14:	008007c4 	movi	r2,31
  804b18:	1185c83a 	sub	r2,r2,r6
  804b1c:	1890d83a 	srl	r8,r3,r2
  804b20:	218e983a 	sll	r7,r4,r6
  804b24:	003f3e06 	br	804820 <_fpadd_parts+0xb4>
  804b28:	113f821e 	bne	r2,r4,804934 <_fpadd_parts+0x1c8>
  804b2c:	28c00117 	ldw	r3,4(r5)
  804b30:	98800117 	ldw	r2,4(r19)
  804b34:	10ff7f26 	beq	r2,r3,804934 <_fpadd_parts+0x1c8>
  804b38:	04c020b4 	movhi	r19,130
  804b3c:	9cf2cc04 	addi	r19,r19,-13520
  804b40:	003f7c06 	br	804934 <_fpadd_parts+0x1c8>
  804b44:	2006d07a 	srli	r3,r4,1
  804b48:	008007c4 	movi	r2,31
  804b4c:	1185c83a 	sub	r2,r2,r6
  804b50:	1894d83a 	srl	r10,r3,r2
  804b54:	2192983a 	sll	r9,r4,r6
  804b58:	003fd706 	br	804ab8 <_fpadd_parts+0x34c>
  804b5c:	9487883a 	add	r3,r18,r18
  804b60:	008007c4 	movi	r2,31
  804b64:	1185c83a 	sub	r2,r2,r6
  804b68:	1886983a 	sll	r3,r3,r2
  804b6c:	899ad83a 	srl	r13,r17,r6
  804b70:	919cd83a 	srl	r14,r18,r6
  804b74:	1b5ab03a 	or	r13,r3,r13
  804b78:	003fc906 	br	804aa0 <_fpadd_parts+0x334>

00804b7c <__subdf3>:
  804b7c:	deffea04 	addi	sp,sp,-88
  804b80:	dcc01415 	stw	r19,80(sp)
  804b84:	dcc00404 	addi	r19,sp,16
  804b88:	2011883a 	mov	r8,r4
  804b8c:	2813883a 	mov	r9,r5
  804b90:	dc401315 	stw	r17,76(sp)
  804b94:	d809883a 	mov	r4,sp
  804b98:	980b883a 	mov	r5,r19
  804b9c:	dc400904 	addi	r17,sp,36
  804ba0:	dfc01515 	stw	ra,84(sp)
  804ba4:	da400115 	stw	r9,4(sp)
  804ba8:	d9c00315 	stw	r7,12(sp)
  804bac:	da000015 	stw	r8,0(sp)
  804bb0:	d9800215 	stw	r6,8(sp)
  804bb4:	0805b300 	call	805b30 <__unpack_d>
  804bb8:	d9000204 	addi	r4,sp,8
  804bbc:	880b883a 	mov	r5,r17
  804bc0:	0805b300 	call	805b30 <__unpack_d>
  804bc4:	d8800a17 	ldw	r2,40(sp)
  804bc8:	880b883a 	mov	r5,r17
  804bcc:	9809883a 	mov	r4,r19
  804bd0:	d9800e04 	addi	r6,sp,56
  804bd4:	1080005c 	xori	r2,r2,1
  804bd8:	d8800a15 	stw	r2,40(sp)
  804bdc:	080476c0 	call	80476c <_fpadd_parts>
  804be0:	1009883a 	mov	r4,r2
  804be4:	080581c0 	call	80581c <__pack_d>
  804be8:	dfc01517 	ldw	ra,84(sp)
  804bec:	dcc01417 	ldw	r19,80(sp)
  804bf0:	dc401317 	ldw	r17,76(sp)
  804bf4:	dec01604 	addi	sp,sp,88
  804bf8:	f800283a 	ret

00804bfc <__adddf3>:
  804bfc:	deffea04 	addi	sp,sp,-88
  804c00:	dcc01415 	stw	r19,80(sp)
  804c04:	dcc00404 	addi	r19,sp,16
  804c08:	2011883a 	mov	r8,r4
  804c0c:	2813883a 	mov	r9,r5
  804c10:	dc401315 	stw	r17,76(sp)
  804c14:	d809883a 	mov	r4,sp
  804c18:	980b883a 	mov	r5,r19
  804c1c:	dc400904 	addi	r17,sp,36
  804c20:	dfc01515 	stw	ra,84(sp)
  804c24:	da400115 	stw	r9,4(sp)
  804c28:	d9c00315 	stw	r7,12(sp)
  804c2c:	da000015 	stw	r8,0(sp)
  804c30:	d9800215 	stw	r6,8(sp)
  804c34:	0805b300 	call	805b30 <__unpack_d>
  804c38:	d9000204 	addi	r4,sp,8
  804c3c:	880b883a 	mov	r5,r17
  804c40:	0805b300 	call	805b30 <__unpack_d>
  804c44:	d9800e04 	addi	r6,sp,56
  804c48:	9809883a 	mov	r4,r19
  804c4c:	880b883a 	mov	r5,r17
  804c50:	080476c0 	call	80476c <_fpadd_parts>
  804c54:	1009883a 	mov	r4,r2
  804c58:	080581c0 	call	80581c <__pack_d>
  804c5c:	dfc01517 	ldw	ra,84(sp)
  804c60:	dcc01417 	ldw	r19,80(sp)
  804c64:	dc401317 	ldw	r17,76(sp)
  804c68:	dec01604 	addi	sp,sp,88
  804c6c:	f800283a 	ret

00804c70 <__muldf3>:
  804c70:	deffe004 	addi	sp,sp,-128
  804c74:	dc401815 	stw	r17,96(sp)
  804c78:	dc400404 	addi	r17,sp,16
  804c7c:	2011883a 	mov	r8,r4
  804c80:	2813883a 	mov	r9,r5
  804c84:	dc001715 	stw	r16,92(sp)
  804c88:	d809883a 	mov	r4,sp
  804c8c:	880b883a 	mov	r5,r17
  804c90:	dc000904 	addi	r16,sp,36
  804c94:	dfc01f15 	stw	ra,124(sp)
  804c98:	da400115 	stw	r9,4(sp)
  804c9c:	d9c00315 	stw	r7,12(sp)
  804ca0:	da000015 	stw	r8,0(sp)
  804ca4:	d9800215 	stw	r6,8(sp)
  804ca8:	ddc01e15 	stw	r23,120(sp)
  804cac:	dd801d15 	stw	r22,116(sp)
  804cb0:	dd401c15 	stw	r21,112(sp)
  804cb4:	dd001b15 	stw	r20,108(sp)
  804cb8:	dcc01a15 	stw	r19,104(sp)
  804cbc:	dc801915 	stw	r18,100(sp)
  804cc0:	0805b300 	call	805b30 <__unpack_d>
  804cc4:	d9000204 	addi	r4,sp,8
  804cc8:	800b883a 	mov	r5,r16
  804ccc:	0805b300 	call	805b30 <__unpack_d>
  804cd0:	d9000417 	ldw	r4,16(sp)
  804cd4:	00800044 	movi	r2,1
  804cd8:	1100102e 	bgeu	r2,r4,804d1c <__muldf3+0xac>
  804cdc:	d8c00917 	ldw	r3,36(sp)
  804ce0:	10c0062e 	bgeu	r2,r3,804cfc <__muldf3+0x8c>
  804ce4:	00800104 	movi	r2,4
  804ce8:	20800a26 	beq	r4,r2,804d14 <__muldf3+0xa4>
  804cec:	1880cc26 	beq	r3,r2,805020 <__muldf3+0x3b0>
  804cf0:	00800084 	movi	r2,2
  804cf4:	20800926 	beq	r4,r2,804d1c <__muldf3+0xac>
  804cf8:	1880191e 	bne	r3,r2,804d60 <__muldf3+0xf0>
  804cfc:	d8c00a17 	ldw	r3,40(sp)
  804d00:	d8800517 	ldw	r2,20(sp)
  804d04:	8009883a 	mov	r4,r16
  804d08:	10c4c03a 	cmpne	r2,r2,r3
  804d0c:	d8800a15 	stw	r2,40(sp)
  804d10:	00000706 	br	804d30 <__muldf3+0xc0>
  804d14:	00800084 	movi	r2,2
  804d18:	1880c326 	beq	r3,r2,805028 <__muldf3+0x3b8>
  804d1c:	d8800517 	ldw	r2,20(sp)
  804d20:	d8c00a17 	ldw	r3,40(sp)
  804d24:	8809883a 	mov	r4,r17
  804d28:	10c4c03a 	cmpne	r2,r2,r3
  804d2c:	d8800515 	stw	r2,20(sp)
  804d30:	080581c0 	call	80581c <__pack_d>
  804d34:	dfc01f17 	ldw	ra,124(sp)
  804d38:	ddc01e17 	ldw	r23,120(sp)
  804d3c:	dd801d17 	ldw	r22,116(sp)
  804d40:	dd401c17 	ldw	r21,112(sp)
  804d44:	dd001b17 	ldw	r20,108(sp)
  804d48:	dcc01a17 	ldw	r19,104(sp)
  804d4c:	dc801917 	ldw	r18,100(sp)
  804d50:	dc401817 	ldw	r17,96(sp)
  804d54:	dc001717 	ldw	r16,92(sp)
  804d58:	dec02004 	addi	sp,sp,128
  804d5c:	f800283a 	ret
  804d60:	dd800717 	ldw	r22,28(sp)
  804d64:	dc800c17 	ldw	r18,48(sp)
  804d68:	002b883a 	mov	r21,zero
  804d6c:	0023883a 	mov	r17,zero
  804d70:	a80b883a 	mov	r5,r21
  804d74:	b00d883a 	mov	r6,r22
  804d78:	880f883a 	mov	r7,r17
  804d7c:	ddc00817 	ldw	r23,32(sp)
  804d80:	dcc00d17 	ldw	r19,52(sp)
  804d84:	9009883a 	mov	r4,r18
  804d88:	08057040 	call	805704 <__muldi3>
  804d8c:	001b883a 	mov	r13,zero
  804d90:	680f883a 	mov	r7,r13
  804d94:	b009883a 	mov	r4,r22
  804d98:	000b883a 	mov	r5,zero
  804d9c:	980d883a 	mov	r6,r19
  804da0:	b82d883a 	mov	r22,r23
  804da4:	002f883a 	mov	r23,zero
  804da8:	db401615 	stw	r13,88(sp)
  804dac:	d8801315 	stw	r2,76(sp)
  804db0:	d8c01415 	stw	r3,80(sp)
  804db4:	dcc01515 	stw	r19,84(sp)
  804db8:	08057040 	call	805704 <__muldi3>
  804dbc:	b00d883a 	mov	r6,r22
  804dc0:	000b883a 	mov	r5,zero
  804dc4:	9009883a 	mov	r4,r18
  804dc8:	b80f883a 	mov	r7,r23
  804dcc:	1021883a 	mov	r16,r2
  804dd0:	1823883a 	mov	r17,r3
  804dd4:	08057040 	call	805704 <__muldi3>
  804dd8:	8085883a 	add	r2,r16,r2
  804ddc:	140d803a 	cmpltu	r6,r2,r16
  804de0:	88c7883a 	add	r3,r17,r3
  804de4:	30cd883a 	add	r6,r6,r3
  804de8:	1029883a 	mov	r20,r2
  804dec:	302b883a 	mov	r21,r6
  804df0:	da801317 	ldw	r10,76(sp)
  804df4:	dac01417 	ldw	r11,80(sp)
  804df8:	db001517 	ldw	r12,84(sp)
  804dfc:	db401617 	ldw	r13,88(sp)
  804e00:	3440612e 	bgeu	r6,r17,804f88 <__muldf3+0x318>
  804e04:	0009883a 	mov	r4,zero
  804e08:	5105883a 	add	r2,r10,r4
  804e0c:	128d803a 	cmpltu	r6,r2,r10
  804e10:	5d07883a 	add	r3,r11,r20
  804e14:	30cd883a 	add	r6,r6,r3
  804e18:	0021883a 	mov	r16,zero
